(dp0
S'FR0013149382'
p1
cnumpy.core.multiarray
scalar
p2
(cnumpy
dtype
p3
(S'S15'
p4
I0
I1
tp5
Rp6
(I3
S'|'
p7
NNNI15
I1
I0
tp8
bS'target holidays'
p9
tp10
Rp11
sS'XS1390266838'
p12
g2
(g3
(S'S21'
p13
I0
I1
tp14
Rp15
(I3
S'|'
p16
NNNI21
I1
I0
tp17
bS'london new york tokyo'
p18
tp19
Rp20
sS'XS1378402199'
p21
g2
(g3
(S'S9'
p22
I0
I1
tp23
Rp24
(I3
S'|'
p25
NNNI9
I1
I0
tp26
bS'hong kong'
p27
tp28
Rp29
sS'CH0285315344'
p30
g2
(g3
(S'S8'
p31
I0
I1
tp32
Rp33
(I3
S'|'
p34
NNNI8
I1
I0
tp35
bS'new york'
p36
tp37
Rp38
sS'XS1138845844'
p39
g2
(g3
(S'S15'
p40
I0
I1
tp41
Rp42
(I3
S'|'
p43
NNNI15
I1
I0
tp44
bS'london new york'
p45
tp46
Rp47
sS'JP1023601G11'
p48
g2
(g3
(S'S12'
p49
I0
I1
tp50
Rp51
(I3
S'|'
p52
NNNI12
I1
I0
tp53
bS'london tokyo'
p54
tp55
Rp56
sS'CH0254071894'
p57
g2
(g3
(S'S24'
p58
I0
I1
tp59
Rp60
(I3
S'|'
p61
NNNI24
I1
I0
tp62
bS'new york target holidays'
p63
tp64
Rp65
sS'XS1387752329'
p66
g2
(g3
(S'S12'
p67
I0
I1
tp68
Rp69
(I3
S'|'
p70
NNNI12
I1
I0
tp71
bS'london tokyo'
p72
tp73
Rp74
sS'XS1313827740'
p75
g2
(g3
(S'S12'
p76
I0
I1
tp77
Rp78
(I3
S'|'
p79
NNNI12
I1
I0
tp80
bS'london tokyo'
p81
tp82
Rp83
sS'XS1373121745'
p84
g2
(g3
(S'S12'
p85
I0
I1
tp86
Rp87
(I3
S'|'
p88
NNNI12
I1
I0
tp89
bS'london tokyo'
p90
tp91
Rp92
sS'XS1328130197'
p93
g2
(g3
(S'S9'
p94
I0
I1
tp95
Rp96
(I3
S'|'
p97
NNNI9
I1
I0
tp98
bS'hong kong'
p99
tp100
Rp101
sS'XS1328604837'
p102
g2
(g3
(S'S14'
p103
I0
I1
tp104
Rp105
(I3
S'|'
p106
NNNI14
I1
I0
tp107
bS'new york tokyo'
p108
tp109
Rp110
sS'XS1369058059'
p111
g2
(g3
(S'S5'
p112
I0
I1
tp113
Rp114
(I3
S'|'
p115
NNNI5
I1
I0
tp116
bS'tokyo'
p117
tp118
Rp119
sS'XS1293806839'
p120
g2
(g3
(S'S9'
p121
I0
I1
tp122
Rp123
(I3
S'|'
p124
NNNI9
I1
I0
tp125
bS'hong kong'
p126
tp127
Rp128
sS'XS0532879300'
p129
g2
(g3
(S'S31'
p130
I0
I1
tp131
Rp132
(I3
S'|'
p133
NNNI31
I1
I0
tp134
bS'london new york sao-paulo tokyo'
p135
tp136
Rp137
sS'XS1315761459'
p138
g2
(g3
(S'S31'
p139
I0
I1
tp140
Rp141
(I3
S'|'
p142
NNNI31
I1
I0
tp143
bS'london new york sao-paulo tokyo'
p144
tp145
Rp146
sS'XS1281070455'
p147
g2
(g3
(S'S8'
p148
I0
I1
tp149
Rp150
(I3
S'|'
p151
NNNI8
I1
I0
tp152
bS'new york'
p153
tp154
Rp155
sS'XS1389980613'
p156
g2
(g3
(S'S21'
p157
I0
I1
tp158
Rp159
(I3
S'|'
p160
NNNI21
I1
I0
tp161
bS'london new york tokyo'
p162
tp163
Rp164
sS'XS1319973456'
p165
g2
(g3
(S'S8'
p166
I0
I1
tp167
Rp168
(I3
S'|'
p169
NNNI8
I1
I0
tp170
bS'new york'
p171
tp172
Rp173
sS'XS1314926939'
p174
g2
(g3
(S'S5'
p175
I0
I1
tp176
Rp177
(I3
S'|'
p178
NNNI5
I1
I0
tp179
bS'tokyo'
p180
tp181
Rp182
sS'XS1317103569'
p183
g2
(g3
(S'S8'
p184
I0
I1
tp185
Rp186
(I3
S'|'
p187
NNNI8
I1
I0
tp188
bS'new york'
p189
tp190
Rp191
sS'XS1338495218'
p192
g2
(g3
(S'S8'
p193
I0
I1
tp194
Rp195
(I3
S'|'
p196
NNNI8
I1
I0
tp197
bS'new york'
p198
tp199
Rp200
sS'XS1338526970'
p201
g2
(g3
(S'S8'
p202
I0
I1
tp203
Rp204
(I3
S'|'
p205
NNNI8
I1
I0
tp206
bS'new york'
p207
tp208
Rp209
sS'XS0934761585'
p210
g2
(g3
(S'S30'
p211
I0
I1
tp212
Rp213
(I3
S'|'
p214
NNNI30
I1
I0
tp215
bS'istanbul london new york tokyo'
p216
tp217
Rp218
sS'XS1384275365'
p219
g2
(g3
(S'S17'
p220
I0
I1
tp221
Rp222
(I3
S'|'
p223
NNNI17
I1
I0
tp224
bS'beijing hong kong'
p225
tp226
Rp227
sS'XS1380250636'
p228
g2
(g3
(S'S9'
p229
I0
I1
tp230
Rp231
(I3
S'|'
p232
NNNI9
I1
I0
tp233
bS'singapore'
p234
tp235
Rp236
sS'XS1317899398'
p237
g2
(g3
(S'S6'
p238
I0
I1
tp239
Rp240
(I3
S'|'
p241
NNNI6
I1
I0
tp242
bS'zurich'
p243
tp244
Rp245
sS'XS1396347053'
p246
g2
(g3
(S'S35'
p247
I0
I1
tp248
Rp249
(I3
S'|'
p250
NNNI35
I1
I0
tp251
bS'auckland london new york wellington'
p252
tp253
Rp254
sS'XS1362329325'
p255
g2
(g3
(S'S9'
p256
I0
I1
tp257
Rp258
(I3
S'|'
p259
NNNI9
I1
I0
tp260
bS'hong kong'
p261
tp262
Rp263
sS'XS1314930709'
p264
g2
(g3
(S'S8'
p265
I0
I1
tp266
Rp267
(I3
S'|'
p268
NNNI8
I1
I0
tp269
bS'new york'
p270
tp271
Rp272
sS'XS1351712127'
p273
g2
(g3
(S'S15'
p274
I0
I1
tp275
Rp276
(I3
S'|'
p277
NNNI15
I1
I0
tp278
bS'london new york'
p279
tp280
Rp281
sS'XS1051391289'
p282
g2
(g3
(S'S12'
p283
I0
I1
tp284
Rp285
(I3
S'|'
p286
NNNI12
I1
I0
tp287
bS'london tokyo'
p288
tp289
Rp290
sS'RU000A0JS6T5'
p291
g2
(g3
(S'S6'
p292
I0
I1
tp293
Rp294
(I3
S'|'
p295
NNNI6
I1
I0
tp296
bS'sydney'
p297
tp298
Rp299
sS'US87165BAJ26'
p300
g2
(g3
(S'S8'
p301
I0
I1
tp302
Rp303
(I3
S'|'
p304
NNNI8
I1
I0
tp305
bS'budapest'
p306
tp307
Rp308
sS'XS1327113301'
p309
g2
(g3
(S'S15'
p310
I0
I1
tp311
Rp312
(I3
S'|'
p313
NNNI15
I1
I0
tp314
bS'target holidays'
p315
tp316
Rp317
sS'XS1276921571'
p318
g2
(g3
(S'S8'
p319
I0
I1
tp320
Rp321
(I3
S'|'
p322
NNNI8
I1
I0
tp323
bS'new york'
p324
tp325
Rp326
sS'FR0013101540'
p327
g2
(g3
(S'S15'
p328
I0
I1
tp329
Rp330
(I3
S'|'
p331
NNNI15
I1
I0
tp332
bS'target holidays'
p333
tp334
Rp335
sS'XS1314906741'
p336
g2
(g3
(S'S5'
p337
I0
I1
tp338
Rp339
(I3
S'|'
p340
NNNI5
I1
I0
tp341
bS'tokyo'
p342
tp343
Rp344
sS'XS1338527275'
p345
g2
(g3
(S'S8'
p346
I0
I1
tp347
Rp348
(I3
S'|'
p349
NNNI8
I1
I0
tp350
bS'new york'
p351
tp352
Rp353
sS'XS1314933471'
p354
g2
(g3
(S'S9'
p355
I0
I1
tp356
Rp357
(I3
S'|'
p358
NNNI9
I1
I0
tp359
bS'hong kong'
p360
tp361
Rp362
sS'XS1289621747'
p363
g2
(g3
(S'S15'
p364
I0
I1
tp365
Rp366
(I3
S'|'
p367
NNNI15
I1
I0
tp368
bS'target holidays'
p369
tp370
Rp371
sS'FR0013047479'
p372
g2
(g3
(S'S22'
p373
I0
I1
tp374
Rp375
(I3
S'|'
p376
NNNI22
I1
I0
tp377
bS'london target holidays'
p378
tp379
Rp380
sS'XS1242432117'
p381
g2
(g3
(S'S30'
p382
I0
I1
tp383
Rp384
(I3
S'|'
p385
NNNI30
I1
I0
tp386
bS'brasilia london new york tokyo'
p387
tp388
Rp389
sS'XS1343090673'
p390
g2
(g3
(S'S9'
p391
I0
I1
tp392
Rp393
(I3
S'|'
p394
NNNI9
I1
I0
tp395
bS'hong kong'
p396
tp397
Rp398
sS'XS1377251779'
p399
g2
(g3
(S'S8'
p400
I0
I1
tp401
Rp402
(I3
S'|'
p403
NNNI8
I1
I0
tp404
bS'new york'
p405
tp406
Rp407
sS'XS1314830313'
p408
g2
(g3
(S'S15'
p409
I0
I1
tp410
Rp411
(I3
S'|'
p412
NNNI15
I1
I0
tp413
bS'target holidays'
p414
tp415
Rp416
sS'SG71B3000002'
p417
g2
(g3
(S'S9'
p418
I0
I1
tp419
Rp420
(I3
S'|'
p421
NNNI9
I1
I0
tp422
bS'hong kong'
p423
tp424
Rp425
sS'XS0480504256'
p426
g2
(g3
(S'S8'
p427
I0
I1
tp428
Rp429
(I3
S'|'
p430
NNNI8
I1
I0
tp431
bS'new york'
p432
tp433
Rp434
sS'XS1022156720'
p435
g2
(g3
(S'S30'
p436
I0
I1
tp437
Rp438
(I3
S'|'
p439
NNNI30
I1
I0
tp440
bS'brasilia london new york tokyo'
p441
tp442
Rp443
sS'XS1051396163'
p444
g2
(g3
(S'S12'
p445
I0
I1
tp446
Rp447
(I3
S'|'
p448
NNNI12
I1
I0
tp449
bS'london tokyo'
p450
tp451
Rp452
sS'XS1395051235'
p453
g2
(g3
(S'S12'
p454
I0
I1
tp455
Rp456
(I3
S'|'
p457
NNNI12
I1
I0
tp458
bS'london tokyo'
p459
tp460
Rp461
sS'NL0011218706'
p462
g2
(g3
(S'S15'
p463
I0
I1
tp464
Rp465
(I3
S'|'
p466
NNNI15
I1
I0
tp467
bS'target holidays'
p468
tp469
Rp470
sS'XS1320679969'
p471
g2
(g3
(S'S18'
p472
I0
I1
tp473
Rp474
(I3
S'|'
p475
NNNI18
I1
I0
tp476
bS'hong kong new york'
p477
tp478
Rp479
sS'XS1293827249'
p480
g2
(g3
(S'S9'
p481
I0
I1
tp482
Rp483
(I3
S'|'
p484
NNNI9
I1
I0
tp485
bS'hong kong'
p486
tp487
Rp488
sS'XS1388513977'
p489
g2
(g3
(S'S9'
p490
I0
I1
tp491
Rp492
(I3
S'|'
p493
NNNI9
I1
I0
tp494
bS'hong kong'
p495
tp496
Rp497
sS'NL0011264668'
p498
g2
(g3
(S'S8'
p499
I0
I1
tp500
Rp501
(I3
S'|'
p502
NNNI8
I1
I0
tp503
bS'new york'
p504
tp505
Rp506
sS'XS1338515429'
p507
g2
(g3
(S'S9'
p508
I0
I1
tp509
Rp510
(I3
S'|'
p511
NNNI9
I1
I0
tp512
bS'hong kong'
p513
tp514
Rp515
sS'XS1379137638'
p516
g2
(g3
(S'S21'
p517
I0
I1
tp518
Rp519
(I3
S'|'
p520
NNNI21
I1
I0
tp521
bS'london new york tokyo'
p522
tp523
Rp524
sS'XS1314893741'
p525
g2
(g3
(S'S14'
p526
I0
I1
tp527
Rp528
(I3
S'|'
p529
NNNI14
I1
I0
tp530
bS'new york tokyo'
p531
tp532
Rp533
sS'XS1372181609'
p534
g2
(g3
(S'S14'
p535
I0
I1
tp536
Rp537
(I3
S'|'
p538
NNNI14
I1
I0
tp539
bS'new york tokyo'
p540
tp541
Rp542
sS'NL0011641436'
p543
g2
(g3
(S'S8'
p544
I0
I1
tp545
Rp546
(I3
S'|'
p547
NNNI8
I1
I0
tp548
bS'new york'
p549
tp550
Rp551
sS'CH0270626218'
p552
g2
(g3
(S'S22'
p553
I0
I1
tp554
Rp555
(I3
S'|'
p556
NNNI22
I1
I0
tp557
bS'london target holidays'
p558
tp559
Rp560
sS'XS1314806958'
p561
g2
(g3
(S'S47'
p562
I0
I1
tp563
Rp564
(I3
S'|'
p565
NNNI47
I1
I0
tp566
bS'london new york sao-paulo target holidays tokyo'
p567
tp568
Rp569
sS'DE000CS8A885'
p570
g2
(g3
(S'S22'
p571
I0
I1
tp572
Rp573
(I3
S'|'
p574
NNNI22
I1
I0
tp575
bS'london target holidays'
p576
tp577
Rp578
sS'XS1400705999'
p579
g2
(g3
(S'S9'
p580
I0
I1
tp581
Rp582
(I3
S'|'
p583
NNNI9
I1
I0
tp584
bS'hong kong'
p585
tp586
Rp587
sS'NL0011218771'
p588
g2
(g3
(S'S15'
p589
I0
I1
tp590
Rp591
(I3
S'|'
p592
NNNI15
I1
I0
tp593
bS'target holidays'
p594
tp595
Rp596
sS'XS1388590298'
p597
g2
(g3
(S'S9'
p598
I0
I1
tp599
Rp600
(I3
S'|'
p601
NNNI9
I1
I0
tp602
bS'hong kong'
p603
tp604
Rp605
sS'XS1338514455'
p606
g2
(g3
(S'S15'
p607
I0
I1
tp608
Rp609
(I3
S'|'
p610
NNNI15
I1
I0
tp611
bS'target holidays'
p612
tp613
Rp614
sS'XS1378457094'
p615
g2
(g3
(S'S9'
p616
I0
I1
tp617
Rp618
(I3
S'|'
p619
NNNI9
I1
I0
tp620
bS'hong kong'
p621
tp622
Rp623
sS'XS1373130902'
p624
g2
(g3
(S'S9'
p625
I0
I1
tp626
Rp627
(I3
S'|'
p628
NNNI9
I1
I0
tp629
bS'singapore'
p630
tp631
Rp632
sS'XS1371970499'
p633
g2
(g3
(S'S12'
p634
I0
I1
tp635
Rp636
(I3
S'|'
p637
NNNI12
I1
I0
tp638
bS'london tokyo'
p639
tp640
Rp641
sS'XS1357788261'
p642
g2
(g3
(S'S12'
p643
I0
I1
tp644
Rp645
(I3
S'|'
p646
NNNI12
I1
I0
tp647
bS'london tokyo'
p648
tp649
Rp650
sS'XS1374663331'
p651
g2
(g3
(S'S12'
p652
I0
I1
tp653
Rp654
(I3
S'|'
p655
NNNI12
I1
I0
tp656
bS'london tokyo'
p657
tp658
Rp659
sS'XS1317176953'
p660
g2
(g3
(S'S24'
p661
I0
I1
tp662
Rp663
(I3
S'|'
p664
NNNI24
I1
I0
tp665
bS'new york target holidays'
p666
tp667
Rp668
sS'CH0314989291'
p669
g2
(g3
(S'S15'
p670
I0
I1
tp671
Rp672
(I3
S'|'
p673
NNNI15
I1
I0
tp674
bS'london new york'
p675
tp676
Rp677
sS'XS1293131378'
p678
g2
(g3
(S'S8'
p679
I0
I1
tp680
Rp681
(I3
S'|'
p682
NNNI8
I1
I0
tp683
bS'new york'
p684
tp685
Rp686
sS'FR0122055546'
p687
g2
(g3
(S'S15'
p688
I0
I1
tp689
Rp690
(I3
S'|'
p691
NNNI15
I1
I0
tp692
bS'target holidays'
p693
tp694
Rp695
sS'XS1314852556'
p696
g2
(g3
(S'S8'
p697
I0
I1
tp698
Rp699
(I3
S'|'
p700
NNNI8
I1
I0
tp701
bS'new york'
p702
tp703
Rp704
sS'XS1314798247'
p705
g2
(g3
(S'S14'
p706
I0
I1
tp707
Rp708
(I3
S'|'
p709
NNNI14
I1
I0
tp710
bS'new york tokyo'
p711
tp712
Rp713
sS'CH0306892180'
p714
g2
(g3
(S'S15'
p715
I0
I1
tp716
Rp717
(I3
S'|'
p718
NNNI15
I1
I0
tp719
bS'target holidays'
p720
tp721
Rp722
sS'XS1314936144'
p723
g2
(g3
(S'S5'
p724
I0
I1
tp725
Rp726
(I3
S'|'
p727
NNNI5
I1
I0
tp728
bS'tokyo'
p729
tp730
Rp731
sS'XS1351526840'
p732
g2
(g3
(S'S12'
p733
I0
I1
tp734
Rp735
(I3
S'|'
p736
NNNI12
I1
I0
tp737
bS'london tokyo'
p738
tp739
Rp740
sS'XS1374671789'
p741
g2
(g3
(S'S12'
p742
I0
I1
tp743
Rp744
(I3
S'|'
p745
NNNI12
I1
I0
tp746
bS'london tokyo'
p747
tp748
Rp749
sS'NL0011652045'
p750
g2
(g3
(S'S15'
p751
I0
I1
tp752
Rp753
(I3
S'|'
p754
NNNI15
I1
I0
tp755
bS'target holidays'
p756
tp757
Rp758
sS'XS1314928125'
p759
g2
(g3
(S'S31'
p760
I0
I1
tp761
Rp762
(I3
S'|'
p763
NNNI31
I1
I0
tp764
bS'london new york sao-paulo tokyo'
p765
tp766
Rp767
sS'XS1374799580'
p768
g2
(g3
(S'S9'
p769
I0
I1
tp770
Rp771
(I3
S'|'
p772
NNNI9
I1
I0
tp773
bS'hong kong'
p774
tp775
Rp776
sS'XS1240986452'
p777
g2
(g3
(S'S21'
p778
I0
I1
tp779
Rp780
(I3
S'|'
p781
NNNI21
I1
I0
tp782
bS'london new york tokyo'
p783
tp784
Rp785
sS'XS1245850828'
p786
g2
(g3
(S'S15'
p787
I0
I1
tp788
Rp789
(I3
S'|'
p790
NNNI15
I1
I0
tp791
bS'target holidays'
p792
tp793
Rp794
sS'CH0259241310'
p795
g2
(g3
(S'S5'
p796
I0
I1
tp797
Rp798
(I3
S'|'
p799
NNNI5
I1
I0
tp800
bS'tokyo'
p801
tp802
Rp803
sS'XS1314883783'
p804
g2
(g3
(S'S5'
p805
I0
I1
tp806
Rp807
(I3
S'|'
p808
NNNI5
I1
I0
tp809
bS'tokyo'
p810
tp811
Rp812
sS'XS1378398900'
p813
g2
(g3
(S'S9'
p814
I0
I1
tp815
Rp816
(I3
S'|'
p817
NNNI9
I1
I0
tp818
bS'hong kong'
p819
tp820
Rp821
sS'XS1100785796'
p822
g2
(g3
(S'S22'
p823
I0
I1
tp824
Rp825
(I3
S'|'
p826
NNNI22
I1
I0
tp827
bS'london target holidays'
p828
tp829
Rp830
sS'XS1378483926'
p831
g2
(g3
(S'S9'
p832
I0
I1
tp833
Rp834
(I3
S'|'
p835
NNNI9
I1
I0
tp836
bS'hong kong'
p837
tp838
Rp839
sS'XS1320632067'
p840
g2
(g3
(S'S9'
p841
I0
I1
tp842
Rp843
(I3
S'|'
p844
NNNI9
I1
I0
tp845
bS'hong kong'
p846
tp847
Rp848
sS'XS1374208137'
p849
g2
(g3
(S'S5'
p850
I0
I1
tp851
Rp852
(I3
S'|'
p853
NNNI5
I1
I0
tp854
bS'tokyo'
p855
tp856
Rp857
sS'XS1402949009'
p858
g2
(g3
(S'S15'
p859
I0
I1
tp860
Rp861
(I3
S'|'
p862
NNNI15
I1
I0
tp863
bS'target holidays'
p864
tp865
Rp866
sS'XS1353106203'
p867
g2
(g3
(S'S9'
p868
I0
I1
tp869
Rp870
(I3
S'|'
p871
NNNI9
I1
I0
tp872
bS'hong kong'
p873
tp874
Rp875
sS'XS1037741441'
p876
g2
(g3
(S'S30'
p877
I0
I1
tp878
Rp879
(I3
S'|'
p880
NNNI30
I1
I0
tp881
bS'istanbul london new york tokyo'
p882
tp883
Rp884
sS'XS1318516850'
p885
g2
(g3
(S'S21'
p886
I0
I1
tp887
Rp888
(I3
S'|'
p889
NNNI21
I1
I0
tp890
bS'london new york tokyo'
p891
tp892
Rp893
sS'XS1343806086'
p894
g2
(g3
(S'S9'
p895
I0
I1
tp896
Rp897
(I3
S'|'
p898
NNNI9
I1
I0
tp899
bS'hong kong'
p900
tp901
Rp902
sS'XS1338538801'
p903
g2
(g3
(S'S8'
p904
I0
I1
tp905
Rp906
(I3
S'|'
p907
NNNI8
I1
I0
tp908
bS'new york'
p909
tp910
Rp911
sS'XS1330974145'
p912
g2
(g3
(S'S4'
p913
I0
I1
tp914
Rp915
(I3
S'|'
p916
NNNI4
I1
I0
tp917
bS'oslo'
p918
tp919
Rp920
sS'XS1377239642'
p921
g2
(g3
(S'S12'
p922
I0
I1
tp923
Rp924
(I3
S'|'
p925
NNNI12
I1
I0
tp926
bS'london tokyo'
p927
tp928
Rp929
sS'XS1378402355'
p930
g2
(g3
(S'S9'
p931
I0
I1
tp932
Rp933
(I3
S'|'
p934
NNNI9
I1
I0
tp935
bS'hong kong'
p936
tp937
Rp938
sS'XS1341156963'
p939
g2
(g3
(S'S8'
p940
I0
I1
tp941
Rp942
(I3
S'|'
p943
NNNI8
I1
I0
tp944
bS'new york'
p945
tp946
Rp947
sS'XS1337143595'
p948
g2
(g3
(S'S8'
p949
I0
I1
tp950
Rp951
(I3
S'|'
p952
NNNI8
I1
I0
tp953
bS'new york'
p954
tp955
Rp956
sS'CH0287818246'
p957
g2
(g3
(S'S6'
p958
I0
I1
tp959
Rp960
(I3
S'|'
p961
NNNI6
I1
I0
tp962
bS'zurich'
p963
tp964
Rp965
sS'XS1378451998'
p966
g2
(g3
(S'S9'
p967
I0
I1
tp968
Rp969
(I3
S'|'
p970
NNNI9
I1
I0
tp971
bS'hong kong'
p972
tp973
Rp974
sS'XS1296578393'
p975
g2
(g3
(S'S31'
p976
I0
I1
tp977
Rp978
(I3
S'|'
p979
NNNI31
I1
I0
tp980
bS'london new york target holidays'
p981
tp982
Rp983
sS'AT0000A1K9C8'
p984
g2
(g3
(S'S15'
p985
I0
I1
tp986
Rp987
(I3
S'|'
p988
NNNI15
I1
I0
tp989
bS'target holidays'
p990
tp991
Rp992
sS'XS1317126859'
p993
g2
(g3
(S'S8'
p994
I0
I1
tp995
Rp996
(I3
S'|'
p997
NNNI8
I1
I0
tp998
bS'new york'
p999
tp1000
Rp1001
sS'CH0311853128'
p1002
g2
(g3
(S'S15'
p1003
I0
I1
tp1004
Rp1005
(I3
S'|'
p1006
NNNI15
I1
I0
tp1007
bS'target holidays'
p1008
tp1009
Rp1010
sS'XS1324457297'
p1011
g2
(g3
(S'S8'
p1012
I0
I1
tp1013
Rp1014
(I3
S'|'
p1015
NNNI8
I1
I0
tp1016
bS'new york'
p1017
tp1018
Rp1019
sS'XS1323431954'
p1020
g2
(g3
(S'S8'
p1021
I0
I1
tp1022
Rp1023
(I3
S'|'
p1024
NNNI8
I1
I0
tp1025
bS'new york'
p1026
tp1027
Rp1028
sS'XS1378405614'
p1029
g2
(g3
(S'S9'
p1030
I0
I1
tp1031
Rp1032
(I3
S'|'
p1033
NNNI9
I1
I0
tp1034
bS'hong kong'
p1035
tp1036
Rp1037
sS'XS1378485541'
p1038
g2
(g3
(S'S9'
p1039
I0
I1
tp1040
Rp1041
(I3
S'|'
p1042
NNNI9
I1
I0
tp1043
bS'hong kong'
p1044
tp1045
Rp1046
sS'XS0762420544'
p1047
g2
(g3
(S'S8'
p1048
I0
I1
tp1049
Rp1050
(I3
S'|'
p1051
NNNI8
I1
I0
tp1052
bS'new york'
p1053
tp1054
Rp1055
sS'XS1334562284'
p1056
g2
(g3
(S'S41'
p1057
I0
I1
tp1058
Rp1059
(I3
S'|'
p1060
NNNI41
I1
I0
tp1061
bS'beijing hong kong london new york toronto'
p1062
tp1063
Rp1064
sS'XS1316417374'
p1065
g2
(g3
(S'S21'
p1066
I0
I1
tp1067
Rp1068
(I3
S'|'
p1069
NNNI21
I1
I0
tp1070
bS'london new york tokyo'
p1071
tp1072
Rp1073
sS'XS1295011461'
p1074
g2
(g3
(S'S15'
p1075
I0
I1
tp1076
Rp1077
(I3
S'|'
p1078
NNNI15
I1
I0
tp1079
bS'target holidays'
p1080
tp1081
Rp1082
sS'XS1284570626'
p1083
g2
(g3
(S'S15'
p1084
I0
I1
tp1085
Rp1086
(I3
S'|'
p1087
NNNI15
I1
I0
tp1088
bS'target holidays'
p1089
tp1090
Rp1091
sS'XS1051389036'
p1092
g2
(g3
(S'S6'
p1093
I0
I1
tp1094
Rp1095
(I3
S'|'
p1096
NNNI6
I1
I0
tp1097
bS'zurich'
p1098
tp1099
Rp1100
sS'USY8564WAC74'
p1101
g2
(g3
(S'S21'
p1102
I0
I1
tp1103
Rp1104
(I3
S'|'
p1105
NNNI21
I1
I0
tp1106
bS'london new york tokyo'
p1107
tp1108
Rp1109
sS'XS1333977103'
p1110
g2
(g3
(S'S9'
p1111
I0
I1
tp1112
Rp1113
(I3
S'|'
p1114
NNNI9
I1
I0
tp1115
bS'hong kong'
p1116
tp1117
Rp1118
sS'CWN5647B8199'
p1119
g2
(g3
(S'S8'
p1120
I0
I1
tp1121
Rp1122
(I3
S'|'
p1123
NNNI8
I1
I0
tp1124
bS'new york'
p1125
tp1126
Rp1127
sS'XS1374309240'
p1128
g2
(g3
(S'S12'
p1129
I0
I1
tp1130
Rp1131
(I3
S'|'
p1132
NNNI12
I1
I0
tp1133
bS'london tokyo'
p1134
tp1135
Rp1136
sS'XS1293855455'
p1137
g2
(g3
(S'S9'
p1138
I0
I1
tp1139
Rp1140
(I3
S'|'
p1141
NNNI9
I1
I0
tp1142
bS'hong kong'
p1143
tp1144
Rp1145
sS'CH0273347820'
p1146
g2
(g3
(S'S6'
p1147
I0
I1
tp1148
Rp1149
(I3
S'|'
p1150
NNNI6
I1
I0
tp1151
bS'zurich'
p1152
tp1153
Rp1154
sS'FREXA0000325'
p1155
g2
(g3
(S'S15'
p1156
I0
I1
tp1157
Rp1158
(I3
S'|'
p1159
NNNI15
I1
I0
tp1160
bS'target holidays'
p1161
tp1162
Rp1163
sS'US29269MAA45'
p1164
g2
(g3
(S'S8'
p1165
I0
I1
tp1166
Rp1167
(I3
S'|'
p1168
NNNI8
I1
I0
tp1169
bS'new york'
p1170
tp1171
Rp1172
sS'XS1400678733'
p1173
g2
(g3
(S'S35'
p1174
I0
I1
tp1175
Rp1176
(I3
S'|'
p1177
NNNI35
I1
I0
tp1178
bS'auckland london new york wellington'
p1179
tp1180
Rp1181
sS'XS1343803653'
p1182
g2
(g3
(S'S9'
p1183
I0
I1
tp1184
Rp1185
(I3
S'|'
p1186
NNNI9
I1
I0
tp1187
bS'hong kong'
p1188
tp1189
Rp1190
sS'XS1360332123'
p1191
g2
(g3
(S'S8'
p1192
I0
I1
tp1193
Rp1194
(I3
S'|'
p1195
NNNI8
I1
I0
tp1196
bS'new york'
p1197
tp1198
Rp1199
sS'XS1169151039'
p1200
g2
(g3
(S'S8'
p1201
I0
I1
tp1202
Rp1203
(I3
S'|'
p1204
NNNI8
I1
I0
tp1205
bS'new york'
p1206
tp1207
Rp1208
sS'XS1338526467'
p1209
g2
(g3
(S'S6'
p1210
I0
I1
tp1211
Rp1212
(I3
S'|'
p1213
NNNI6
I1
I0
tp1214
bS'london'
p1215
tp1216
Rp1217
sS'XS1349977451'
p1218
g2
(g3
(S'S35'
p1219
I0
I1
tp1220
Rp1221
(I3
S'|'
p1222
NNNI35
I1
I0
tp1223
bS'auckland london new york wellington'
p1224
tp1225
Rp1226
sS'NL0011527403'
p1227
g2
(g3
(S'S8'
p1228
I0
I1
tp1229
Rp1230
(I3
S'|'
p1231
NNNI8
I1
I0
tp1232
bS'new york'
p1233
tp1234
Rp1235
sS'XS1314892420'
p1236
g2
(g3
(S'S12'
p1237
I0
I1
tp1238
Rp1239
(I3
S'|'
p1240
NNNI12
I1
I0
tp1241
bS'london tokyo'
p1242
tp1243
Rp1244
sS'XS1378406695'
p1245
g2
(g3
(S'S9'
p1246
I0
I1
tp1247
Rp1248
(I3
S'|'
p1249
NNNI9
I1
I0
tp1250
bS'hong kong'
p1251
tp1252
Rp1253
sS'XS1391436125'
p1254
g2
(g3
(S'S15'
p1255
I0
I1
tp1256
Rp1257
(I3
S'|'
p1258
NNNI15
I1
I0
tp1259
bS'target holidays'
p1260
tp1261
Rp1262
sS'XS1313174176'
p1263
g2
(g3
(S'S22'
p1264
I0
I1
tp1265
Rp1266
(I3
S'|'
p1267
NNNI22
I1
I0
tp1268
bS'london target holidays'
p1269
tp1270
Rp1271
sS'XS1333692017'
p1272
g2
(g3
(S'S12'
p1273
I0
I1
tp1274
Rp1275
(I3
S'|'
p1276
NNNI12
I1
I0
tp1277
bS'london tokyo'
p1278
tp1279
Rp1280
sS'XS1254236638'
p1281
g2
(g3
(S'S9'
p1282
I0
I1
tp1283
Rp1284
(I3
S'|'
p1285
NNNI9
I1
I0
tp1286
bS'hong kong'
p1287
tp1288
Rp1289
sS'XS1316191383'
p1290
g2
(g3
(S'S8'
p1291
I0
I1
tp1292
Rp1293
(I3
S'|'
p1294
NNNI8
I1
I0
tp1295
bS'new york'
p1296
tp1297
Rp1298
sS'XS1289344720'
p1299
g2
(g3
(S'S9'
p1300
I0
I1
tp1301
Rp1302
(I3
S'|'
p1303
NNNI9
I1
I0
tp1304
bS'hong kong'
p1305
tp1306
Rp1307
sS'XS1341281191'
p1308
g2
(g3
(S'S12'
p1309
I0
I1
tp1310
Rp1311
(I3
S'|'
p1312
NNNI12
I1
I0
tp1313
bS'london tokyo'
p1314
tp1315
Rp1316
sS'XS1378449406'
p1317
g2
(g3
(S'S9'
p1318
I0
I1
tp1319
Rp1320
(I3
S'|'
p1321
NNNI9
I1
I0
tp1322
bS'hong kong'
p1323
tp1324
Rp1325
sS'XS1202206592'
p1326
g2
(g3
(S'S8'
p1327
I0
I1
tp1328
Rp1329
(I3
S'|'
p1330
NNNI8
I1
I0
tp1331
bS'new york'
p1332
tp1333
Rp1334
sS'CH0295689142'
p1335
g2
(g3
(S'S15'
p1336
I0
I1
tp1337
Rp1338
(I3
S'|'
p1339
NNNI15
I1
I0
tp1340
bS'target holidays'
p1341
tp1342
Rp1343
sS'XS1386394016'
p1344
g2
(g3
(S'S8'
p1345
I0
I1
tp1346
Rp1347
(I3
S'|'
p1348
NNNI8
I1
I0
tp1349
bS'new york'
p1350
tp1351
Rp1352
sS'XS1224182789'
p1353
g2
(g3
(S'S8'
p1354
I0
I1
tp1355
Rp1356
(I3
S'|'
p1357
NNNI8
I1
I0
tp1358
bS'new york'
p1359
tp1360
Rp1361
sS'XS1390326830'
p1362
g2
(g3
(S'S12'
p1363
I0
I1
tp1364
Rp1365
(I3
S'|'
p1366
NNNI12
I1
I0
tp1367
bS'london tokyo'
p1368
tp1369
Rp1370
sS'XS1313825611'
p1371
g2
(g3
(S'S12'
p1372
I0
I1
tp1373
Rp1374
(I3
S'|'
p1375
NNNI12
I1
I0
tp1376
bS'london tokyo'
p1377
tp1378
Rp1379
sS'CWN5647C8339'
p1380
g2
(g3
(S'S35'
p1381
I0
I1
tp1382
Rp1383
(I3
S'|'
p1384
NNNI35
I1
I0
tp1385
bS'auckland london new york wellington'
p1386
tp1387
Rp1388
sS'XS1072479048'
p1389
g2
(g3
(S'S30'
p1390
I0
I1
tp1391
Rp1392
(I3
S'|'
p1393
NNNI30
I1
I0
tp1394
bS'brasilia london new york tokyo'
p1395
tp1396
Rp1397
sS'XS1265367638'
p1398
g2
(g3
(S'S21'
p1399
I0
I1
tp1400
Rp1401
(I3
S'|'
p1402
NNNI21
I1
I0
tp1403
bS'london new york tokyo'
p1404
tp1405
Rp1406
sS'XS1382791892'
p1407
g2
(g3
(S'S15'
p1408
I0
I1
tp1409
Rp1410
(I3
S'|'
p1411
NNNI15
I1
I0
tp1412
bS'target holidays'
p1413
tp1414
Rp1415
sS'XS1314922789'
p1416
g2
(g3
(S'S37'
p1417
I0
I1
tp1418
Rp1419
(I3
S'|'
p1420
NNNI37
I1
I0
tp1421
bS'london new york target holidays tokyo'
p1422
tp1423
Rp1424
sS'XS1374651245'
p1425
g2
(g3
(S'S5'
p1426
I0
I1
tp1427
Rp1428
(I3
S'|'
p1429
NNNI5
I1
I0
tp1430
bS'tokyo'
p1431
tp1432
Rp1433
sS'XS1381941597'
p1434
g2
(g3
(S'S8'
p1435
I0
I1
tp1436
Rp1437
(I3
S'|'
p1438
NNNI8
I1
I0
tp1439
bS'new york'
p1440
tp1441
Rp1442
sS'CH0289951292'
p1443
g2
(g3
(S'S15'
p1444
I0
I1
tp1445
Rp1446
(I3
S'|'
p1447
NNNI15
I1
I0
tp1448
bS'target holidays'
p1449
tp1450
Rp1451
sS'XS1314834810'
p1452
g2
(g3
(S'S8'
p1453
I0
I1
tp1454
Rp1455
(I3
S'|'
p1456
NNNI8
I1
I0
tp1457
bS'new york'
p1458
tp1459
Rp1460
sS'XS1328684508'
p1461
g2
(g3
(S'S12'
p1462
I0
I1
tp1463
Rp1464
(I3
S'|'
p1465
NNNI12
I1
I0
tp1466
bS'london tokyo'
p1467
tp1468
Rp1469
sS'XS1366708169'
p1470
g2
(g3
(S'S5'
p1471
I0
I1
tp1472
Rp1473
(I3
S'|'
p1474
NNNI5
I1
I0
tp1475
bS'tokyo'
p1476
tp1477
Rp1478
sS'XS1289283597'
p1479
g2
(g3
(S'S8'
p1480
I0
I1
tp1481
Rp1482
(I3
S'|'
p1483
NNNI8
I1
I0
tp1484
bS'new york'
p1485
tp1486
Rp1487
sS'XS1366720701'
p1488
g2
(g3
(S'S21'
p1489
I0
I1
tp1490
Rp1491
(I3
S'|'
p1492
NNNI21
I1
I0
tp1493
bS'london new york tokyo'
p1494
tp1495
Rp1496
sS'XS1368564990'
p1497
g2
(g3
(S'S8'
p1498
I0
I1
tp1499
Rp1500
(I3
S'|'
p1501
NNNI8
I1
I0
tp1502
bS'new york'
p1503
tp1504
Rp1505
sS'XS1070759680'
p1506
g2
(g3
(S'S9'
p1507
I0
I1
tp1508
Rp1509
(I3
S'|'
p1510
NNNI9
I1
I0
tp1511
bS'singapore'
p1512
tp1513
Rp1514
sS'CH0259326129'
p1515
g2
(g3
(S'S24'
p1516
I0
I1
tp1517
Rp1518
(I3
S'|'
p1519
NNNI24
I1
I0
tp1520
bS'new york target holidays'
p1521
tp1522
Rp1523
sS'XS1116037406'
p1524
g2
(g3
(S'S30'
p1525
I0
I1
tp1526
Rp1527
(I3
S'|'
p1528
NNNI30
I1
I0
tp1529
bS'brasilia london new york tokyo'
p1530
tp1531
Rp1532
sS'XS1394989849'
p1533
g2
(g3
(S'S41'
p1534
I0
I1
tp1535
Rp1536
(I3
S'|'
p1537
NNNI41
I1
I0
tp1538
bS'beijing hong kong london new york toronto'
p1539
tp1540
Rp1541
sS'DE000NWB2C47'
p1542
g2
(g3
(S'S15'
p1543
I0
I1
tp1544
Rp1545
(I3
S'|'
p1546
NNNI15
I1
I0
tp1547
bS'target holidays'
p1548
tp1549
Rp1550
sS'XS1378443201'
p1551
g2
(g3
(S'S9'
p1552
I0
I1
tp1553
Rp1554
(I3
S'|'
p1555
NNNI9
I1
I0
tp1556
bS'hong kong'
p1557
tp1558
Rp1559
sS'USN5946FAC16'
p1560
g2
(g3
(S'S8'
p1561
I0
I1
tp1562
Rp1563
(I3
S'|'
p1564
NNNI8
I1
I0
tp1565
bS'budapest'
p1566
tp1567
Rp1568
sS'XS1387820852'
p1569
g2
(g3
(S'S12'
p1570
I0
I1
tp1571
Rp1572
(I3
S'|'
p1573
NNNI12
I1
I0
tp1574
bS'london tokyo'
p1575
tp1576
Rp1577
sS'ES0224261042'
p1578
g2
(g3
(S'S15'
p1579
I0
I1
tp1580
Rp1581
(I3
S'|'
p1582
NNNI15
I1
I0
tp1583
bS'target holidays'
p1584
tp1585
Rp1586
sS'CH0273396876'
p1587
g2
(g3
(S'S6'
p1588
I0
I1
tp1589
Rp1590
(I3
S'|'
p1591
NNNI6
I1
I0
tp1592
bS'zurich'
p1593
tp1594
Rp1595
sS'XS1317208079'
p1596
g2
(g3
(S'S5'
p1597
I0
I1
tp1598
Rp1599
(I3
S'|'
p1600
NNNI5
I1
I0
tp1601
bS'tokyo'
p1602
tp1603
Rp1604
sS'XS1349974193'
p1605
g2
(g3
(S'S5'
p1606
I0
I1
tp1607
Rp1608
(I3
S'|'
p1609
NNNI5
I1
I0
tp1610
bS'tokyo'
p1611
tp1612
Rp1613
sS'XS1374689054'
p1614
g2
(g3
(S'S12'
p1615
I0
I1
tp1616
Rp1617
(I3
S'|'
p1618
NNNI12
I1
I0
tp1619
bS'london tokyo'
p1620
tp1621
Rp1622
sS'XS1384795362'
p1623
g2
(g3
(S'S9'
p1624
I0
I1
tp1625
Rp1626
(I3
S'|'
p1627
NNNI9
I1
I0
tp1628
bS'singapore'
p1629
tp1630
Rp1631
sS'US698299BF03'
p1632
g2
(g3
(S'S8'
p1633
I0
I1
tp1634
Rp1635
(I3
S'|'
p1636
NNNI8
I1
I0
tp1637
bS'new york'
p1638
tp1639
Rp1640
sS'XS1343107154'
p1641
g2
(g3
(S'S9'
p1642
I0
I1
tp1643
Rp1644
(I3
S'|'
p1645
NNNI9
I1
I0
tp1646
bS'hong kong'
p1647
tp1648
Rp1649
sS'NL0011327655'
p1650
g2
(g3
(S'S15'
p1651
I0
I1
tp1652
Rp1653
(I3
S'|'
p1654
NNNI15
I1
I0
tp1655
bS'london new york'
p1656
tp1657
Rp1658
sS'XS1361492884'
p1659
g2
(g3
(S'S9'
p1660
I0
I1
tp1661
Rp1662
(I3
S'|'
p1663
NNNI9
I1
I0
tp1664
bS'hong kong'
p1665
tp1666
Rp1667
sS'XS1314823961'
p1668
g2
(g3
(S'S5'
p1669
I0
I1
tp1670
Rp1671
(I3
S'|'
p1672
NNNI5
I1
I0
tp1673
bS'tokyo'
p1674
tp1675
Rp1676
sS'XS0894756278'
p1677
g2
(g3
(S'S31'
p1678
I0
I1
tp1679
Rp1680
(I3
S'|'
p1681
NNNI31
I1
I0
tp1682
bS'london new york sao-paulo tokyo'
p1683
tp1684
Rp1685
sS'XS1375043244'
p1686
g2
(g3
(S'S15'
p1687
I0
I1
tp1688
Rp1689
(I3
S'|'
p1690
NNNI15
I1
I0
tp1691
bS'target holidays'
p1692
tp1693
Rp1694
sS'XS1320015966'
p1695
g2
(g3
(S'S9'
p1696
I0
I1
tp1697
Rp1698
(I3
S'|'
p1699
NNNI9
I1
I0
tp1700
bS'hong kong'
p1701
tp1702
Rp1703
sS'XS1320634279'
p1704
g2
(g3
(S'S9'
p1705
I0
I1
tp1706
Rp1707
(I3
S'|'
p1708
NNNI9
I1
I0
tp1709
bS'hong kong'
p1710
tp1711
Rp1712
sS'XS1376846165'
p1713
g2
(g3
(S'S8'
p1714
I0
I1
tp1715
Rp1716
(I3
S'|'
p1717
NNNI8
I1
I0
tp1718
bS'new york'
p1719
tp1720
Rp1721
sS'XS1308059739'
p1722
g2
(g3
(S'S9'
p1723
I0
I1
tp1724
Rp1725
(I3
S'|'
p1726
NNNI9
I1
I0
tp1727
bS'hong kong'
p1728
tp1729
Rp1730
sS'XS1138888224'
p1731
g2
(g3
(S'S6'
p1732
I0
I1
tp1733
Rp1734
(I3
S'|'
p1735
NNNI6
I1
I0
tp1736
bS'zurich'
p1737
tp1738
Rp1739
sS'XS1391044630'
p1740
g2
(g3
(S'S6'
p1741
I0
I1
tp1742
Rp1743
(I3
S'|'
p1744
NNNI6
I1
I0
tp1745
bS'zurich'
p1746
tp1747
Rp1748
sS'XS1346107433'
p1749
g2
(g3
(S'S15'
p1750
I0
I1
tp1751
Rp1752
(I3
S'|'
p1753
NNNI15
I1
I0
tp1754
bS'london new york'
p1755
tp1756
Rp1757
sS'XS1378450248'
p1758
g2
(g3
(S'S9'
p1759
I0
I1
tp1760
Rp1761
(I3
S'|'
p1762
NNNI9
I1
I0
tp1763
bS'hong kong'
p1764
tp1765
Rp1766
sS'XS1380675485'
p1767
g2
(g3
(S'S8'
p1768
I0
I1
tp1769
Rp1770
(I3
S'|'
p1771
NNNI8
I1
I0
tp1772
bS'new york'
p1773
tp1774
Rp1775
sS'XS1289404219'
p1776
g2
(g3
(S'S35'
p1777
I0
I1
tp1778
Rp1779
(I3
S'|'
p1780
NNNI35
I1
I0
tp1781
bS'auckland london new york wellington'
p1782
tp1783
Rp1784
sS'XS1317213152'
p1785
g2
(g3
(S'S21'
p1786
I0
I1
tp1787
Rp1788
(I3
S'|'
p1789
NNNI21
I1
I0
tp1790
bS'london new york tokyo'
p1791
tp1792
Rp1793
sS'XS1378439605'
p1794
g2
(g3
(S'S9'
p1795
I0
I1
tp1796
Rp1797
(I3
S'|'
p1798
NNNI9
I1
I0
tp1799
bS'hong kong'
p1800
tp1801
Rp1802
sS'XS1370861582'
p1803
g2
(g3
(S'S30'
p1804
I0
I1
tp1805
Rp1806
(I3
S'|'
p1807
NNNI30
I1
I0
tp1808
bS'brasilia london new york tokyo'
p1809
tp1810
Rp1811
sS'DE000A18XBE9'
p1812
g2
(g3
(S'S22'
p1813
I0
I1
tp1814
Rp1815
(I3
S'|'
p1816
NNNI22
I1
I0
tp1817
bS'london target holidays'
p1818
tp1819
Rp1820
sS'XS1179183436'
p1821
g2
(g3
(S'S8'
p1822
I0
I1
tp1823
Rp1824
(I3
S'|'
p1825
NNNI8
I1
I0
tp1826
bS'new york'
p1827
tp1828
Rp1829
sS'XS1267239546'
p1830
g2
(g3
(S'S21'
p1831
I0
I1
tp1832
Rp1833
(I3
S'|'
p1834
NNNI21
I1
I0
tp1835
bS'london new york tokyo'
p1836
tp1837
Rp1838
sS'XS1390294376'
p1839
g2
(g3
(S'S12'
p1840
I0
I1
tp1841
Rp1842
(I3
S'|'
p1843
NNNI12
I1
I0
tp1844
bS'london tokyo'
p1845
tp1846
Rp1847
sS'XS1313828045'
p1848
g2
(g3
(S'S12'
p1849
I0
I1
tp1850
Rp1851
(I3
S'|'
p1852
NNNI12
I1
I0
tp1853
bS'london tokyo'
p1854
tp1855
Rp1856
sS'XS1378432345'
p1857
g2
(g3
(S'S9'
p1858
I0
I1
tp1859
Rp1860
(I3
S'|'
p1861
NNNI9
I1
I0
tp1862
bS'hong kong'
p1863
tp1864
Rp1865
sS'XS1224182193'
p1866
g2
(g3
(S'S8'
p1867
I0
I1
tp1868
Rp1869
(I3
S'|'
p1870
NNNI8
I1
I0
tp1871
bS'new york'
p1872
tp1873
Rp1874
sS'XS1279305467'
p1875
g2
(g3
(S'S14'
p1876
I0
I1
tp1877
Rp1878
(I3
S'|'
p1879
NNNI14
I1
I0
tp1880
bS'caire new york'
p1881
tp1882
Rp1883
sS'XS1400950876'
p1884
g2
(g3
(S'S15'
p1885
I0
I1
tp1886
Rp1887
(I3
S'|'
p1888
NNNI15
I1
I0
tp1889
bS'target holidays'
p1890
tp1891
Rp1892
sS'XS1314867315'
p1893
g2
(g3
(S'S21'
p1894
I0
I1
tp1895
Rp1896
(I3
S'|'
p1897
NNNI21
I1
I0
tp1898
bS'london new york tokyo'
p1899
tp1900
Rp1901
sS'XS1343087299'
p1902
g2
(g3
(S'S9'
p1903
I0
I1
tp1904
Rp1905
(I3
S'|'
p1906
NNNI9
I1
I0
tp1907
bS'hong kong'
p1908
tp1909
Rp1910
sS'XS1390439013'
p1911
g2
(g3
(S'S15'
p1912
I0
I1
tp1913
Rp1914
(I3
S'|'
p1915
NNNI15
I1
I0
tp1916
bS'target holidays'
p1917
tp1918
Rp1919
sS'XS1338528323'
p1920
g2
(g3
(S'S8'
p1921
I0
I1
tp1922
Rp1923
(I3
S'|'
p1924
NNNI8
I1
I0
tp1925
bS'new york'
p1926
tp1927
Rp1928
sS'US1730T0V892'
p1929
g2
(g3
(S'S8'
p1930
I0
I1
tp1931
Rp1932
(I3
S'|'
p1933
NNNI8
I1
I0
tp1934
bS'new york'
p1935
tp1936
Rp1937
sS'US89566EAG35'
p1938
g2
(g3
(S'S21'
p1939
I0
I1
tp1940
Rp1941
(I3
S'|'
p1942
NNNI21
I1
I0
tp1943
bS'london new york tokyo'
p1944
tp1945
Rp1946
sS'XS1362987718'
p1947
g2
(g3
(S'S8'
p1948
I0
I1
tp1949
Rp1950
(I3
S'|'
p1951
NNNI8
I1
I0
tp1952
bS'new york'
p1953
tp1954
Rp1955
sS'XS1339509157'
p1956
g2
(g3
(S'S21'
p1957
I0
I1
tp1958
Rp1959
(I3
S'|'
p1960
NNNI21
I1
I0
tp1961
bS'london new york tokyo'
p1962
tp1963
Rp1964
sS'XS1330964690'
p1965
g2
(g3
(S'S15'
p1966
I0
I1
tp1967
Rp1968
(I3
S'|'
p1969
NNNI15
I1
I0
tp1970
bS'target holidays'
p1971
tp1972
Rp1973
sS'CH0303247602'
p1974
g2
(g3
(S'S15'
p1975
I0
I1
tp1976
Rp1977
(I3
S'|'
p1978
NNNI15
I1
I0
tp1979
bS'target holidays'
p1980
tp1981
Rp1982
sS'CH0279922980'
p1983
g2
(g3
(S'S15'
p1984
I0
I1
tp1985
Rp1986
(I3
S'|'
p1987
NNNI15
I1
I0
tp1988
bS'target holidays'
p1989
tp1990
Rp1991
sS'XS1399203923'
p1992
g2
(g3
(S'S8'
p1993
I0
I1
tp1994
Rp1995
(I3
S'|'
p1996
NNNI8
I1
I0
tp1997
bS'new york'
p1998
tp1999
Rp2000
sS'XS1343124910'
p2001
g2
(g3
(S'S9'
p2002
I0
I1
tp2003
Rp2004
(I3
S'|'
p2005
NNNI9
I1
I0
tp2006
bS'hong kong'
p2007
tp2008
Rp2009
sS'XS1317382775'
p2010
g2
(g3
(S'S12'
p2011
I0
I1
tp2012
Rp2013
(I3
S'|'
p2014
NNNI12
I1
I0
tp2015
bS'london tokyo'
p2016
tp2017
Rp2018
sS'XS1314950137'
p2019
g2
(g3
(S'S5'
p2020
I0
I1
tp2021
Rp2022
(I3
S'|'
p2023
NNNI5
I1
I0
tp2024
bS'tokyo'
p2025
tp2026
Rp2027
sS'XS1338554246'
p2028
g2
(g3
(S'S6'
p2029
I0
I1
tp2030
Rp2031
(I3
S'|'
p2032
NNNI6
I1
I0
tp2033
bS'zurich'
p2034
tp2035
Rp2036
sS'XS1289436922'
p2037
g2
(g3
(S'S9'
p2038
I0
I1
tp2039
Rp2040
(I3
S'|'
p2041
NNNI9
I1
I0
tp2042
bS'singapore'
p2043
tp2044
Rp2045
sS'XS1347564970'
p2046
g2
(g3
(S'S15'
p2047
I0
I1
tp2048
Rp2049
(I3
S'|'
p2050
NNNI15
I1
I0
tp2051
bS'target holidays'
p2052
tp2053
Rp2054
sS'XS1313817436'
p2055
g2
(g3
(S'S12'
p2056
I0
I1
tp2057
Rp2058
(I3
S'|'
p2059
NNNI12
I1
I0
tp2060
bS'london tokyo'
p2061
tp2062
Rp2063
sS'XS1389956829'
p2064
g2
(g3
(S'S12'
p2065
I0
I1
tp2066
Rp2067
(I3
S'|'
p2068
NNNI12
I1
I0
tp2069
bS'london tokyo'
p2070
tp2071
Rp2072
sS'XS1167535027'
p2073
g2
(g3
(S'S15'
p2074
I0
I1
tp2075
Rp2076
(I3
S'|'
p2077
NNNI15
I1
I0
tp2078
bS'target holidays'
p2079
tp2080
Rp2081
sS'NL0011089438'
p2082
g2
(g3
(S'S15'
p2083
I0
I1
tp2084
Rp2085
(I3
S'|'
p2086
NNNI15
I1
I0
tp2087
bS'target holidays'
p2088
tp2089
Rp2090
sS'XS1278910101'
p2091
g2
(g3
(S'S8'
p2092
I0
I1
tp2093
Rp2094
(I3
S'|'
p2095
NNNI8
I1
I0
tp2096
bS'new york'
p2097
tp2098
Rp2099
sS'US87305QCF63'
p2100
g2
(g3
(S'S15'
p2101
I0
I1
tp2102
Rp2103
(I3
S'|'
p2104
NNNI15
I1
I0
tp2105
bS'london new york'
p2106
tp2107
Rp2108
sS'XS1336085243'
p2109
g2
(g3
(S'S35'
p2110
I0
I1
tp2111
Rp2112
(I3
S'|'
p2113
NNNI35
I1
I0
tp2114
bS'auckland london new york wellington'
p2115
tp2116
Rp2117
sS'CWN5647C3538'
p2118
g2
(g3
(S'S8'
p2119
I0
I1
tp2120
Rp2121
(I3
S'|'
p2122
NNNI8
I1
I0
tp2123
bS'new york'
p2124
tp2125
Rp2126
sS'XS1294535833'
p2127
g2
(g3
(S'S9'
p2128
I0
I1
tp2129
Rp2130
(I3
S'|'
p2131
NNNI9
I1
I0
tp2132
bS'hong kong'
p2133
tp2134
Rp2135
sS'XS1251280506'
p2136
g2
(g3
(S'S8'
p2137
I0
I1
tp2138
Rp2139
(I3
S'|'
p2140
NNNI8
I1
I0
tp2141
bS'new york'
p2142
tp2143
Rp2144
sS'RU000A0JW0S4'
p2145
g2
(g3
(S'S28'
p2146
I0
I1
tp2147
Rp2148
(I3
S'|'
p2149
NNNI28
I1
I0
tp2150
bS'johannesburg london new york'
p2151
tp2152
Rp2153
sS'XS1318386627'
p2154
g2
(g3
(S'S15'
p2155
I0
I1
tp2156
Rp2157
(I3
S'|'
p2158
NNNI15
I1
I0
tp2159
bS'london new york'
p2160
tp2161
Rp2162
sS'XS1338511782'
p2163
g2
(g3
(S'S8'
p2164
I0
I1
tp2165
Rp2166
(I3
S'|'
p2167
NNNI8
I1
I0
tp2168
bS'new york'
p2169
tp2170
Rp2171
sS'NL0011218755'
p2172
g2
(g3
(S'S15'
p2173
I0
I1
tp2174
Rp2175
(I3
S'|'
p2176
NNNI15
I1
I0
tp2177
bS'target holidays'
p2178
tp2179
Rp2180
sS'XS0881343627'
p2181
g2
(g3
(S'S31'
p2182
I0
I1
tp2183
Rp2184
(I3
S'|'
p2185
NNNI31
I1
I0
tp2186
bS'london new york sao-paulo tokyo'
p2187
tp2188
Rp2189
sS'XS1312016139'
p2190
g2
(g3
(S'S8'
p2191
I0
I1
tp2192
Rp2193
(I3
S'|'
p2194
NNNI8
I1
I0
tp2195
bS'new york'
p2196
tp2197
Rp2198
sS'XS1317247218'
p2199
g2
(g3
(S'S12'
p2200
I0
I1
tp2201
Rp2202
(I3
S'|'
p2203
NNNI12
I1
I0
tp2204
bS'london tokyo'
p2205
tp2206
Rp2207
sS'XS1314860492'
p2208
g2
(g3
(S'S5'
p2209
I0
I1
tp2210
Rp2211
(I3
S'|'
p2212
NNNI5
I1
I0
tp2213
bS'tokyo'
p2214
tp2215
Rp2216
sS'XS1370704303'
p2217
g2
(g3
(S'S9'
p2218
I0
I1
tp2219
Rp2220
(I3
S'|'
p2221
NNNI9
I1
I0
tp2222
bS'hong kong'
p2223
tp2224
Rp2225
sS'US40430CLJ61'
p2226
g2
(g3
(S'S35'
p2227
I0
I1
tp2228
Rp2229
(I3
S'|'
p2230
NNNI35
I1
I0
tp2231
bS'auckland london new york wellington'
p2232
tp2233
Rp2234
sS'XS1314898112'
p2235
g2
(g3
(S'S8'
p2236
I0
I1
tp2237
Rp2238
(I3
S'|'
p2239
NNNI8
I1
I0
tp2240
bS'new york'
p2241
tp2242
Rp2243
sS'DE000UT846X2'
p2244
g2
(g3
(S'S15'
p2245
I0
I1
tp2246
Rp2247
(I3
S'|'
p2248
NNNI15
I1
I0
tp2249
bS'target holidays'
p2250
tp2251
Rp2252
sS'XS1233577953'
p2253
g2
(g3
(S'S35'
p2254
I0
I1
tp2255
Rp2256
(I3
S'|'
p2257
NNNI35
I1
I0
tp2258
bS'auckland london new york wellington'
p2259
tp2260
Rp2261
sS'XS1314929289'
p2262
g2
(g3
(S'S5'
p2263
I0
I1
tp2264
Rp2265
(I3
S'|'
p2266
NNNI5
I1
I0
tp2267
bS'tokyo'
p2268
tp2269
Rp2270
sS'NL0011546775'
p2271
g2
(g3
(S'S15'
p2272
I0
I1
tp2273
Rp2274
(I3
S'|'
p2275
NNNI15
I1
I0
tp2276
bS'london new york'
p2277
tp2278
Rp2279
sS'DK0030368204'
p2280
g2
(g3
(S'S9'
p2281
I0
I1
tp2282
Rp2283
(I3
S'|'
p2284
NNNI9
I1
I0
tp2285
bS'hong kong'
p2286
tp2287
Rp2288
sS'XS1361511261'
p2289
g2
(g3
(S'S12'
p2290
I0
I1
tp2291
Rp2292
(I3
S'|'
p2293
NNNI12
I1
I0
tp2294
bS'london tokyo'
p2295
tp2296
Rp2297
sS'XS1374124037'
p2298
g2
(g3
(S'S8'
p2299
I0
I1
tp2300
Rp2301
(I3
S'|'
p2302
NNNI8
I1
I0
tp2303
bS'new york'
p2304
tp2305
Rp2306
sS'XS1307677457'
p2307
g2
(g3
(S'S9'
p2308
I0
I1
tp2309
Rp2310
(I3
S'|'
p2311
NNNI9
I1
I0
tp2312
bS'hong kong'
p2313
tp2314
Rp2315
sS'US459058EU33'
p2316
g2
(g3
(S'S21'
p2317
I0
I1
tp2318
Rp2319
(I3
S'|'
p2320
NNNI21
I1
I0
tp2321
bS'london new york tokyo'
p2322
tp2323
Rp2324
sS'XS1343109283'
p2325
g2
(g3
(S'S9'
p2326
I0
I1
tp2327
Rp2328
(I3
S'|'
p2329
NNNI9
I1
I0
tp2330
bS'hong kong'
p2331
tp2332
Rp2333
sS'BE6276085881'
p2334
g2
(g3
(S'S39'
p2335
I0
I1
tp2336
Rp2337
(I3
S'|'
p2338
NNNI39
I1
I0
tp2339
bS'london new york target holidays toronto'
p2340
tp2341
Rp2342
sS'XS1319986946'
p2343
g2
(g3
(S'S18'
p2344
I0
I1
tp2345
Rp2346
(I3
S'|'
p2347
NNNI18
I1
I0
tp2348
bS'hong kong new york'
p2349
tp2350
Rp2351
sS'XS1254275701'
p2352
g2
(g3
(S'S8'
p2353
I0
I1
tp2354
Rp2355
(I3
S'|'
p2356
NNNI8
I1
I0
tp2357
bS'new york'
p2358
tp2359
Rp2360
sS'XS1363005551'
p2361
g2
(g3
(S'S21'
p2362
I0
I1
tp2363
Rp2364
(I3
S'|'
p2365
NNNI21
I1
I0
tp2366
bS'london new york tokyo'
p2367
tp2368
Rp2369
sS'FR0013117504'
p2370
g2
(g3
(S'S15'
p2371
I0
I1
tp2372
Rp2373
(I3
S'|'
p2374
NNNI15
I1
I0
tp2375
bS'target holidays'
p2376
tp2377
Rp2378
sS'XS1301470545'
p2379
g2
(g3
(S'S9'
p2380
I0
I1
tp2381
Rp2382
(I3
S'|'
p2383
NNNI9
I1
I0
tp2384
bS'singapore'
p2385
tp2386
Rp2387
sS'XS1343117625'
p2388
g2
(g3
(S'S17'
p2389
I0
I1
tp2390
Rp2391
(I3
S'|'
p2392
NNNI17
I1
I0
tp2393
bS'beijing hong kong'
p2394
tp2395
Rp2396
sS'XS1364861523'
p2397
g2
(g3
(S'S15'
p2398
I0
I1
tp2399
Rp2400
(I3
S'|'
p2401
NNNI15
I1
I0
tp2402
bS'target holidays'
p2403
tp2404
Rp2405
sS'XS1314792638'
p2406
g2
(g3
(S'S12'
p2407
I0
I1
tp2408
Rp2409
(I3
S'|'
p2410
NNNI12
I1
I0
tp2411
bS'london tokyo'
p2412
tp2413
Rp2414
sS'XS1377978959'
p2415
g2
(g3
(S'S8'
p2416
I0
I1
tp2417
Rp2418
(I3
S'|'
p2419
NNNI8
I1
I0
tp2420
bS'new york'
p2421
tp2422
Rp2423
sS'NL0011660147'
p2424
g2
(g3
(S'S15'
p2425
I0
I1
tp2426
Rp2427
(I3
S'|'
p2428
NNNI15
I1
I0
tp2429
bS'target holidays'
p2430
tp2431
Rp2432
sS'XS1378451212'
p2433
g2
(g3
(S'S9'
p2434
I0
I1
tp2435
Rp2436
(I3
S'|'
p2437
NNNI9
I1
I0
tp2438
bS'hong kong'
p2439
tp2440
Rp2441
sS'XS1333931886'
p2442
g2
(g3
(S'S8'
p2443
I0
I1
tp2444
Rp2445
(I3
S'|'
p2446
NNNI8
I1
I0
tp2447
bS'new york'
p2448
tp2449
Rp2450
sS'XS1230638055'
p2451
g2
(g3
(S'S9'
p2452
I0
I1
tp2453
Rp2454
(I3
S'|'
p2455
NNNI9
I1
I0
tp2456
bS'hong kong'
p2457
tp2458
Rp2459
sS'XS1314918084'
p2460
g2
(g3
(S'S5'
p2461
I0
I1
tp2462
Rp2463
(I3
S'|'
p2464
NNNI5
I1
I0
tp2465
bS'tokyo'
p2466
tp2467
Rp2468
sS'DE000CB0H183'
p2469
g2
(g3
(S'S8'
p2470
I0
I1
tp2471
Rp2472
(I3
S'|'
p2473
NNNI8
I1
I0
tp2474
bS'new york'
p2475
tp2476
Rp2477
sS'CH0289951284'
p2478
g2
(g3
(S'S15'
p2479
I0
I1
tp2480
Rp2481
(I3
S'|'
p2482
NNNI15
I1
I0
tp2483
bS'target holidays'
p2484
tp2485
Rp2486
sS'XS1320673921'
p2487
g2
(g3
(S'S9'
p2488
I0
I1
tp2489
Rp2490
(I3
S'|'
p2491
NNNI9
I1
I0
tp2492
bS'hong kong'
p2493
tp2494
Rp2495
sS'XS1317186598'
p2496
g2
(g3
(S'S9'
p2497
I0
I1
tp2498
Rp2499
(I3
S'|'
p2500
NNNI9
I1
I0
tp2501
bS'singapore'
p2502
tp2503
Rp2504
sS'XS1314885135'
p2505
g2
(g3
(S'S8'
p2506
I0
I1
tp2507
Rp2508
(I3
S'|'
p2509
NNNI8
I1
I0
tp2510
bS'new york'
p2511
tp2512
Rp2513
sS'XS0987038535'
p2514
g2
(g3
(S'S37'
p2515
I0
I1
tp2516
Rp2517
(I3
S'|'
p2518
NNNI37
I1
I0
tp2519
bS'london new york target holidays tokyo'
p2520
tp2521
Rp2522
sS'XS1319990468'
p2523
g2
(g3
(S'S9'
p2524
I0
I1
tp2525
Rp2526
(I3
S'|'
p2527
NNNI9
I1
I0
tp2528
bS'hong kong'
p2529
tp2530
Rp2531
sS'CH0304979872'
p2532
g2
(g3
(S'S15'
p2533
I0
I1
tp2534
Rp2535
(I3
S'|'
p2536
NNNI15
I1
I0
tp2537
bS'target holidays'
p2538
tp2539
Rp2540
sS'XS1336304149'
p2541
g2
(g3
(S'S8'
p2542
I0
I1
tp2543
Rp2544
(I3
S'|'
p2545
NNNI8
I1
I0
tp2546
bS'new york'
p2547
tp2548
Rp2549
sS'XS1389079960'
p2550
g2
(g3
(S'S33'
p2551
I0
I1
tp2552
Rp2553
(I3
S'|'
p2554
NNNI33
I1
I0
tp2555
bS'hong kong london new york toronto'
p2556
tp2557
Rp2558
sS'US785849TM20'
p2559
g2
(g3
(S'S9'
p2560
I0
I1
tp2561
Rp2562
(I3
S'|'
p2563
NNNI9
I1
I0
tp2564
bS'hong kong'
p2565
tp2566
Rp2567
sS'CH0281541968'
p2568
g2
(g3
(S'S15'
p2569
I0
I1
tp2570
Rp2571
(I3
S'|'
p2572
NNNI15
I1
I0
tp2573
bS'london new york'
p2574
tp2575
Rp2576
sS'NL0011525357'
p2577
g2
(g3
(S'S15'
p2578
I0
I1
tp2579
Rp2580
(I3
S'|'
p2581
NNNI15
I1
I0
tp2582
bS'target holidays'
p2583
tp2584
Rp2585
sS'XS0936199602'
p2586
g2
(g3
(S'S8'
p2587
I0
I1
tp2588
Rp2589
(I3
S'|'
p2590
NNNI8
I1
I0
tp2591
bS'new york'
p2592
tp2593
Rp2594
sS'XS1378387531'
p2595
g2
(g3
(S'S9'
p2596
I0
I1
tp2597
Rp2598
(I3
S'|'
p2599
NNNI9
I1
I0
tp2600
bS'hong kong'
p2601
tp2602
Rp2603
sS'XS1390452032'
p2604
g2
(g3
(S'S8'
p2605
I0
I1
tp2606
Rp2607
(I3
S'|'
p2608
NNNI8
I1
I0
tp2609
bS'new york'
p2610
tp2611
Rp2612
sS'XS1395017301'
p2613
g2
(g3
(S'S5'
p2614
I0
I1
tp2615
Rp2616
(I3
S'|'
p2617
NNNI5
I1
I0
tp2618
bS'tokyo'
p2619
tp2620
Rp2621
sS'US07177MAK99'
p2622
g2
(g3
(S'S8'
p2623
I0
I1
tp2624
Rp2625
(I3
S'|'
p2626
NNNI8
I1
I0
tp2627
bS'new york'
p2628
tp2629
Rp2630
sS'XS1333957410'
p2631
g2
(g3
(S'S9'
p2632
I0
I1
tp2633
Rp2634
(I3
S'|'
p2635
NNNI9
I1
I0
tp2636
bS'hong kong'
p2637
tp2638
Rp2639
sS'XS1338514372'
p2640
g2
(g3
(S'S8'
p2641
I0
I1
tp2642
Rp2643
(I3
S'|'
p2644
NNNI8
I1
I0
tp2645
bS'new york'
p2646
tp2647
Rp2648
sS'XS1395517615'
p2649
g2
(g3
(S'S32'
p2650
I0
I1
tp2651
Rp2652
(I3
S'|'
p2653
NNNI32
I1
I0
tp2654
bS'hong kong london target holidays'
p2655
tp2656
Rp2657
sS'XS1391087878'
p2658
g2
(g3
(S'S12'
p2659
I0
I1
tp2660
Rp2661
(I3
S'|'
p2662
NNNI12
I1
I0
tp2663
bS'london tokyo'
p2664
tp2665
Rp2666
sS'XS1388506336'
p2667
g2
(g3
(S'S12'
p2668
I0
I1
tp2669
Rp2670
(I3
S'|'
p2671
NNNI12
I1
I0
tp2672
bS'london tokyo'
p2673
tp2674
Rp2675
sS'XS1063913195'
p2676
g2
(g3
(S'S35'
p2677
I0
I1
tp2678
Rp2679
(I3
S'|'
p2680
NNNI35
I1
I0
tp2681
bS'auckland london new york wellington'
p2682
tp2683
Rp2684
sS'XS1257750049'
p2685
g2
(g3
(S'S35'
p2686
I0
I1
tp2687
Rp2688
(I3
S'|'
p2689
NNNI35
I1
I0
tp2690
bS'auckland london new york wellington'
p2691
tp2692
Rp2693
sS'TH0655E7Q489'
p2694
g2
(g3
(S'S9'
p2695
I0
I1
tp2696
Rp2697
(I3
S'|'
p2698
NNNI9
I1
I0
tp2699
bS'hong kong'
p2700
tp2701
Rp2702
sS'XS1317176870'
p2703
g2
(g3
(S'S6'
p2704
I0
I1
tp2705
Rp2706
(I3
S'|'
p2707
NNNI6
I1
I0
tp2708
bS'london'
p2709
tp2710
Rp2711
sS'XS1343091648'
p2712
g2
(g3
(S'S9'
p2713
I0
I1
tp2714
Rp2715
(I3
S'|'
p2716
NNNI9
I1
I0
tp2717
bS'hong kong'
p2718
tp2719
Rp2720
sS'XS1374789607'
p2721
g2
(g3
(S'S19'
p2722
I0
I1
tp2723
Rp2724
(I3
S'|'
p2725
NNNI19
I1
I0
tp2726
bS'london sydney tokyo'
p2727
tp2728
Rp2729
sS'GR0138003695'
p2730
g2
(g3
(S'S5'
p2731
I0
I1
tp2732
Rp2733
(I3
S'|'
p2734
NNNI5
I1
I0
tp2735
bS'tokyo'
p2736
tp2737
Rp2738
sS'XS0673671623'
p2739
g2
(g3
(S'S30'
p2740
I0
I1
tp2741
Rp2742
(I3
S'|'
p2743
NNNI30
I1
I0
tp2744
bS'brasilia london new york tokyo'
p2745
tp2746
Rp2747
sS'XS1353633750'
p2748
g2
(g3
(S'S6'
p2749
I0
I1
tp2750
Rp2751
(I3
S'|'
p2752
NNNI6
I1
I0
tp2753
bS'london'
p2754
tp2755
Rp2756
sS'XS1395054171'
p2757
g2
(g3
(S'S12'
p2758
I0
I1
tp2759
Rp2760
(I3
S'|'
p2761
NNNI12
I1
I0
tp2762
bS'london tokyo'
p2763
tp2764
Rp2765
sS'XS1314828416'
p2766
g2
(g3
(S'S5'
p2767
I0
I1
tp2768
Rp2769
(I3
S'|'
p2770
NNNI5
I1
I0
tp2771
bS'tokyo'
p2772
tp2773
Rp2774
sS'XS1378396102'
p2775
g2
(g3
(S'S9'
p2776
I0
I1
tp2777
Rp2778
(I3
S'|'
p2779
NNNI9
I1
I0
tp2780
bS'hong kong'
p2781
tp2782
Rp2783
sS'XS1184957055'
p2784
g2
(g3
(S'S15'
p2785
I0
I1
tp2786
Rp2787
(I3
S'|'
p2788
NNNI15
I1
I0
tp2789
bS'target holidays'
p2790
tp2791
Rp2792
sS'XS1307709326'
p2793
g2
(g3
(S'S9'
p2794
I0
I1
tp2795
Rp2796
(I3
S'|'
p2797
NNNI9
I1
I0
tp2798
bS'hong kong'
p2799
tp2800
Rp2801
sS'CH0313212448'
p2802
g2
(g3
(S'S15'
p2803
I0
I1
tp2804
Rp2805
(I3
S'|'
p2806
NNNI15
I1
I0
tp2807
bS'target holidays'
p2808
tp2809
Rp2810
sS'XS1135633466'
p2811
g2
(g3
(S'S6'
p2812
I0
I1
tp2813
Rp2814
(I3
S'|'
p2815
NNNI6
I1
I0
tp2816
bS'london'
p2817
tp2818
Rp2819
sS'XS1343108988'
p2820
g2
(g3
(S'S9'
p2821
I0
I1
tp2822
Rp2823
(I3
S'|'
p2824
NNNI9
I1
I0
tp2825
bS'hong kong'
p2826
tp2827
Rp2828
sS'XS1343789720'
p2829
g2
(g3
(S'S9'
p2830
I0
I1
tp2831
Rp2832
(I3
S'|'
p2833
NNNI9
I1
I0
tp2834
bS'hong kong'
p2835
tp2836
Rp2837
sS'XS1278629743'
p2838
g2
(g3
(S'S8'
p2839
I0
I1
tp2840
Rp2841
(I3
S'|'
p2842
NNNI8
I1
I0
tp2843
bS'new york'
p2844
tp2845
Rp2846
sS'XS1350419476'
p2847
g2
(g3
(S'S6'
p2848
I0
I1
tp2849
Rp2850
(I3
S'|'
p2851
NNNI6
I1
I0
tp2852
bS'london'
p2853
tp2854
Rp2855
sS'XS1387839282'
p2856
g2
(g3
(S'S9'
p2857
I0
I1
tp2858
Rp2859
(I3
S'|'
p2860
NNNI9
I1
I0
tp2861
bS'hong kong'
p2862
tp2863
Rp2864
sS'XS1338495564'
p2865
g2
(g3
(S'S15'
p2866
I0
I1
tp2867
Rp2868
(I3
S'|'
p2869
NNNI15
I1
I0
tp2870
bS'target holidays'
p2871
tp2872
Rp2873
sS'CH0287818881'
p2874
g2
(g3
(S'S6'
p2875
I0
I1
tp2876
Rp2877
(I3
S'|'
p2878
NNNI6
I1
I0
tp2879
bS'london'
p2880
tp2881
Rp2882
sS'NL0010936860'
p2883
g2
(g3
(S'S15'
p2884
I0
I1
tp2885
Rp2886
(I3
S'|'
p2887
NNNI15
I1
I0
tp2888
bS'target holidays'
p2889
tp2890
Rp2891
sS'XS1311331547'
p2892
g2
(g3
(S'S5'
p2893
I0
I1
tp2894
Rp2895
(I3
S'|'
p2896
NNNI5
I1
I0
tp2897
bS'tokyo'
p2898
tp2899
Rp2900
sS'XS1226547021'
p2901
g2
(g3
(S'S15'
p2902
I0
I1
tp2903
Rp2904
(I3
S'|'
p2905
NNNI15
I1
I0
tp2906
bS'target holidays'
p2907
tp2908
Rp2909
sS'XS1314892776'
p2910
g2
(g3
(S'S8'
p2911
I0
I1
tp2912
Rp2913
(I3
S'|'
p2914
NNNI8
I1
I0
tp2915
bS'new york'
p2916
tp2917
Rp2918
sS'XS1233632998'
p2919
g2
(g3
(S'S9'
p2920
I0
I1
tp2921
Rp2922
(I3
S'|'
p2923
NNNI9
I1
I0
tp2924
bS'hong kong'
p2925
tp2926
Rp2927
sS'XS1314878270'
p2928
g2
(g3
(S'S5'
p2929
I0
I1
tp2930
Rp2931
(I3
S'|'
p2932
NNNI5
I1
I0
tp2933
bS'tokyo'
p2934
tp2935
Rp2936
sS'XS1389276798'
p2937
g2
(g3
(S'S12'
p2938
I0
I1
tp2939
Rp2940
(I3
S'|'
p2941
NNNI12
I1
I0
tp2942
bS'london tokyo'
p2943
tp2944
Rp2945
sS'XS1313820570'
p2946
g2
(g3
(S'S47'
p2947
I0
I1
tp2948
Rp2949
(I3
S'|'
p2950
NNNI47
I1
I0
tp2951
bS'london new york sao-paulo target holidays tokyo'
p2952
tp2953
Rp2954
sS'XS1308038576'
p2955
g2
(g3
(S'S9'
p2956
I0
I1
tp2957
Rp2958
(I3
S'|'
p2959
NNNI9
I1
I0
tp2960
bS'hong kong'
p2961
tp2962
Rp2963
sS'XS1381127213'
p2964
g2
(g3
(S'S9'
p2965
I0
I1
tp2966
Rp2967
(I3
S'|'
p2968
NNNI9
I1
I0
tp2969
bS'singapore'
p2970
tp2971
Rp2972
sS'CWN5647G6107'
p2973
g2
(g3
(S'S8'
p2974
I0
I1
tp2975
Rp2976
(I3
S'|'
p2977
NNNI8
I1
I0
tp2978
bS'new york'
p2979
tp2980
Rp2981
sS'XS1374467584'
p2982
g2
(g3
(S'S8'
p2983
I0
I1
tp2984
Rp2985
(I3
S'|'
p2986
NNNI8
I1
I0
tp2987
bS'new york'
p2988
tp2989
Rp2990
sS'XS0848707062'
p2991
g2
(g3
(S'S8'
p2992
I0
I1
tp2993
Rp2994
(I3
S'|'
p2995
NNNI8
I1
I0
tp2996
bS'new york'
p2997
tp2998
Rp2999
sS'XS1343125727'
p3000
g2
(g3
(S'S9'
p3001
I0
I1
tp3002
Rp3003
(I3
S'|'
p3004
NNNI9
I1
I0
tp3005
bS'hong kong'
p3006
tp3007
Rp3008
sS'XS1037645055'
p3009
g2
(g3
(S'S8'
p3010
I0
I1
tp3011
Rp3012
(I3
S'|'
p3013
NNNI8
I1
I0
tp3014
bS'new york'
p3015
tp3016
Rp3017
sS'XS1293136336'
p3018
g2
(g3
(S'S18'
p3019
I0
I1
tp3020
Rp3021
(I3
S'|'
p3022
NNNI18
I1
I0
tp3023
bS'new york sao-paulo'
p3024
tp3025
Rp3026
sS'XS1378447459'
p3027
g2
(g3
(S'S9'
p3028
I0
I1
tp3029
Rp3030
(I3
S'|'
p3031
NNNI9
I1
I0
tp3032
bS'hong kong'
p3033
tp3034
Rp3035
sS'XS0650512147'
p3036
g2
(g3
(S'S31'
p3037
I0
I1
tp3038
Rp3039
(I3
S'|'
p3040
NNNI31
I1
I0
tp3041
bS'london new york sao-paulo tokyo'
p3042
tp3043
Rp3044
sS'XS1029887871'
p3045
g2
(g3
(S'S8'
p3046
I0
I1
tp3047
Rp3048
(I3
S'|'
p3049
NNNI8
I1
I0
tp3050
bS'new york'
p3051
tp3052
Rp3053
sS'FR0013083722'
p3054
g2
(g3
(S'S6'
p3055
I0
I1
tp3056
Rp3057
(I3
S'|'
p3058
NNNI6
I1
I0
tp3059
bS'zurich'
p3060
tp3061
Rp3062
sS'XS1333968706'
p3063
g2
(g3
(S'S9'
p3064
I0
I1
tp3065
Rp3066
(I3
S'|'
p3067
NNNI9
I1
I0
tp3068
bS'hong kong'
p3069
tp3070
Rp3071
sS'XS0989639520'
p3072
g2
(g3
(S'S30'
p3073
I0
I1
tp3074
Rp3075
(I3
S'|'
p3076
NNNI30
I1
I0
tp3077
bS'istanbul london new york tokyo'
p3078
tp3079
Rp3080
sS'XS1240137122'
p3081
g2
(g3
(S'S8'
p3082
I0
I1
tp3083
Rp3084
(I3
S'|'
p3085
NNNI8
I1
I0
tp3086
bS'new york'
p3087
tp3088
Rp3089
sS'XS1337155177'
p3090
g2
(g3
(S'S8'
p3091
I0
I1
tp3092
Rp3093
(I3
S'|'
p3094
NNNI8
I1
I0
tp3095
bS'new york'
p3096
tp3097
Rp3098
sS'XS1373287553'
p3099
g2
(g3
(S'S8'
p3100
I0
I1
tp3101
Rp3102
(I3
S'|'
p3103
NNNI8
I1
I0
tp3104
bS'new york'
p3105
tp3106
Rp3107
sS'XS1135674650'
p3108
g2
(g3
(S'S15'
p3109
I0
I1
tp3110
Rp3111
(I3
S'|'
p3112
NNNI15
I1
I0
tp3113
bS'target holidays'
p3114
tp3115
Rp3116
sS'CH0279928532'
p3117
g2
(g3
(S'S15'
p3118
I0
I1
tp3119
Rp3120
(I3
S'|'
p3121
NNNI15
I1
I0
tp3122
bS'target holidays'
p3123
tp3124
Rp3125
sS'XS1392791072'
p3126
g2
(g3
(S'S8'
p3127
I0
I1
tp3128
Rp3129
(I3
S'|'
p3130
NNNI8
I1
I0
tp3131
bS'new york'
p3132
tp3133
Rp3134
sS'XS1227300693'
p3135
g2
(g3
(S'S21'
p3136
I0
I1
tp3137
Rp3138
(I3
S'|'
p3139
NNNI21
I1
I0
tp3140
bS'london new york tokyo'
p3141
tp3142
Rp3143
sS'XS1333988563'
p3144
g2
(g3
(S'S9'
p3145
I0
I1
tp3146
Rp3147
(I3
S'|'
p3148
NNNI9
I1
I0
tp3149
bS'hong kong'
p3150
tp3151
Rp3152
sS'XS1399287843'
p3153
g2
(g3
(S'S9'
p3154
I0
I1
tp3155
Rp3156
(I3
S'|'
p3157
NNNI9
I1
I0
tp3158
bS'hong kong'
p3159
tp3160
Rp3161
sS'XS1338486068'
p3162
g2
(g3
(S'S8'
p3163
I0
I1
tp3164
Rp3165
(I3
S'|'
p3166
NNNI8
I1
I0
tp3167
bS'new york'
p3168
tp3169
Rp3170
sS'CH0308778791'
p3171
g2
(g3
(S'S15'
p3172
I0
I1
tp3173
Rp3174
(I3
S'|'
p3175
NNNI15
I1
I0
tp3176
bS'target holidays'
p3177
tp3178
Rp3179
sS'US172967KF74'
p3180
g2
(g3
(S'S8'
p3181
I0
I1
tp3182
Rp3183
(I3
S'|'
p3184
NNNI8
I1
I0
tp3185
bS'new york'
p3186
tp3187
Rp3188
sS'XS1337149956'
p3189
g2
(g3
(S'S8'
p3190
I0
I1
tp3191
Rp3192
(I3
S'|'
p3193
NNNI8
I1
I0
tp3194
bS'new york'
p3195
tp3196
Rp3197
sS'XS1317268644'
p3198
g2
(g3
(S'S6'
p3199
I0
I1
tp3200
Rp3201
(I3
S'|'
p3202
NNNI6
I1
I0
tp3203
bS'zurich'
p3204
tp3205
Rp3206
sS'NL0011796974'
p3207
g2
(g3
(S'S8'
p3208
I0
I1
tp3209
Rp3210
(I3
S'|'
p3211
NNNI8
I1
I0
tp3212
bS'new york'
p3213
tp3214
Rp3215
sS'XS1266700282'
p3216
g2
(g3
(S'S37'
p3217
I0
I1
tp3218
Rp3219
(I3
S'|'
p3220
NNNI37
I1
I0
tp3221
bS'london new york target holidays tokyo'
p3222
tp3223
Rp3224
sS'XS1361616870'
p3225
g2
(g3
(S'S17'
p3226
I0
I1
tp3227
Rp3228
(I3
S'|'
p3229
NNNI17
I1
I0
tp3230
bS'beijing hong kong'
p3231
tp3232
Rp3233
sS'CH0266047643'
p3234
g2
(g3
(S'S6'
p3235
I0
I1
tp3236
Rp3237
(I3
S'|'
p3238
NNNI6
I1
I0
tp3239
bS'zurich'
p3240
tp3241
Rp3242
sS'XS1289535236'
p3243
g2
(g3
(S'S9'
p3244
I0
I1
tp3245
Rp3246
(I3
S'|'
p3247
NNNI9
I1
I0
tp3248
bS'hong kong'
p3249
tp3250
Rp3251
sS'XS1314919058'
p3252
g2
(g3
(S'S5'
p3253
I0
I1
tp3254
Rp3255
(I3
S'|'
p3256
NNNI5
I1
I0
tp3257
bS'tokyo'
p3258
tp3259
Rp3260
sS'XS1374673728'
p3261
g2
(g3
(S'S21'
p3262
I0
I1
tp3263
Rp3264
(I3
S'|'
p3265
NNNI21
I1
I0
tp3266
bS'london new york tokyo'
p3267
tp3268
Rp3269
sS'XS1378486945'
p3270
g2
(g3
(S'S9'
p3271
I0
I1
tp3272
Rp3273
(I3
S'|'
p3274
NNNI9
I1
I0
tp3275
bS'hong kong'
p3276
tp3277
Rp3278
sS'USU76453AB28'
p3279
g2
(g3
(S'S15'
p3280
I0
I1
tp3281
Rp3282
(I3
S'|'
p3283
NNNI15
I1
I0
tp3284
bS'london new york'
p3285
tp3286
Rp3287
sS'XS1374788385'
p3288
g2
(g3
(S'S12'
p3289
I0
I1
tp3290
Rp3291
(I3
S'|'
p3292
NNNI12
I1
I0
tp3293
bS'london tokyo'
p3294
tp3295
Rp3296
sS'XS1332492146'
p3297
g2
(g3
(S'S8'
p3298
I0
I1
tp3299
Rp3300
(I3
S'|'
p3301
NNNI8
I1
I0
tp3302
bS'new york'
p3303
tp3304
Rp3305
sS'XS1138852543'
p3306
g2
(g3
(S'S9'
p3307
I0
I1
tp3308
Rp3309
(I3
S'|'
p3310
NNNI9
I1
I0
tp3311
bS'hong kong'
p3312
tp3313
Rp3314
sS'XS1308048880'
p3315
g2
(g3
(S'S9'
p3316
I0
I1
tp3317
Rp3318
(I3
S'|'
p3319
NNNI9
I1
I0
tp3320
bS'hong kong'
p3321
tp3322
Rp3323
sS'XS1330443026'
p3324
g2
(g3
(S'S8'
p3325
I0
I1
tp3326
Rp3327
(I3
S'|'
p3328
NNNI8
I1
I0
tp3329
bS'new york'
p3330
tp3331
Rp3332
sS'XS1330396513'
p3333
g2
(g3
(S'S12'
p3334
I0
I1
tp3335
Rp3336
(I3
S'|'
p3337
NNNI12
I1
I0
tp3338
bS'london tokyo'
p3339
tp3340
Rp3341
sS'XS1388592153'
p3342
g2
(g3
(S'S15'
p3343
I0
I1
tp3344
Rp3345
(I3
S'|'
p3346
NNNI15
I1
I0
tp3347
bS'london new york'
p3348
tp3349
Rp3350
sS'XS1317212931'
p3351
g2
(g3
(S'S12'
p3352
I0
I1
tp3353
Rp3354
(I3
S'|'
p3355
NNNI12
I1
I0
tp3356
bS'london tokyo'
p3357
tp3358
Rp3359
sS'XS1317243068'
p3360
g2
(g3
(S'S12'
p3361
I0
I1
tp3362
Rp3363
(I3
S'|'
p3364
NNNI12
I1
I0
tp3365
bS'london tokyo'
p3366
tp3367
Rp3368
sS'XS1314950210'
p3369
g2
(g3
(S'S8'
p3370
I0
I1
tp3371
Rp3372
(I3
S'|'
p3373
NNNI8
I1
I0
tp3374
bS'new york'
p3375
tp3376
Rp3377
sS'BE6283802450'
p3378
g2
(g3
(S'S15'
p3379
I0
I1
tp3380
Rp3381
(I3
S'|'
p3382
NNNI15
I1
I0
tp3383
bS'target holidays'
p3384
tp3385
Rp3386
sS'XS1317262100'
p3387
g2
(g3
(S'S8'
p3388
I0
I1
tp3389
Rp3390
(I3
S'|'
p3391
NNNI8
I1
I0
tp3392
bS'new york'
p3393
tp3394
Rp3395
sS'XS1338542829'
p3396
g2
(g3
(S'S8'
p3397
I0
I1
tp3398
Rp3399
(I3
S'|'
p3400
NNNI8
I1
I0
tp3401
bS'new york'
p3402
tp3403
Rp3404
sS'CH0314190502'
p3405
g2
(g3
(S'S8'
p3406
I0
I1
tp3407
Rp3408
(I3
S'|'
p3409
NNNI8
I1
I0
tp3410
bS'new york'
p3411
tp3412
Rp3413
sS'XS1317190608'
p3414
g2
(g3
(S'S19'
p3415
I0
I1
tp3416
Rp3417
(I3
S'|'
p3418
NNNI19
I1
I0
tp3419
bS'london sydney tokyo'
p3420
tp3421
Rp3422
sS'CH0283714332'
p3423
g2
(g3
(S'S15'
p3424
I0
I1
tp3425
Rp3426
(I3
S'|'
p3427
NNNI15
I1
I0
tp3428
bS'target holidays'
p3429
tp3430
Rp3431
sS'XS1313827153'
p3432
g2
(g3
(S'S12'
p3433
I0
I1
tp3434
Rp3435
(I3
S'|'
p3436
NNNI12
I1
I0
tp3437
bS'london tokyo'
p3438
tp3439
Rp3440
sS'XS1377528242'
p3441
g2
(g3
(S'S8'
p3442
I0
I1
tp3443
Rp3444
(I3
S'|'
p3445
NNNI8
I1
I0
tp3446
bS'new york'
p3447
tp3448
Rp3449
sS'FR0013020302'
p3450
g2
(g3
(S'S15'
p3451
I0
I1
tp3452
Rp3453
(I3
S'|'
p3454
NNNI15
I1
I0
tp3455
bS'target holidays'
p3456
tp3457
Rp3458
sS'XS1317217492'
p3459
g2
(g3
(S'S9'
p3460
I0
I1
tp3461
Rp3462
(I3
S'|'
p3463
NNNI9
I1
I0
tp3464
bS'singapore'
p3465
tp3466
Rp3467
sS'XS1314913101'
p3468
g2
(g3
(S'S9'
p3469
I0
I1
tp3470
Rp3471
(I3
S'|'
p3472
NNNI9
I1
I0
tp3473
bS'hong kong'
p3474
tp3475
Rp3476
sS'XS1378412669'
p3477
g2
(g3
(S'S17'
p3478
I0
I1
tp3479
Rp3480
(I3
S'|'
p3481
NNNI17
I1
I0
tp3482
bS'beijing hong kong'
p3483
tp3484
Rp3485
sS'XS1307739158'
p3486
g2
(g3
(S'S8'
p3487
I0
I1
tp3488
Rp3489
(I3
S'|'
p3490
NNNI8
I1
I0
tp3491
bS'new york'
p3492
tp3493
Rp3494
sS'XS1378435520'
p3495
g2
(g3
(S'S9'
p3496
I0
I1
tp3497
Rp3498
(I3
S'|'
p3499
NNNI9
I1
I0
tp3500
bS'hong kong'
p3501
tp3502
Rp3503
sS'XS1374691035'
p3504
g2
(g3
(S'S9'
p3505
I0
I1
tp3506
Rp3507
(I3
S'|'
p3508
NNNI9
I1
I0
tp3509
bS'hong kong'
p3510
tp3511
Rp3512
sS'XS1336085169'
p3513
g2
(g3
(S'S35'
p3514
I0
I1
tp3515
Rp3516
(I3
S'|'
p3517
NNNI35
I1
I0
tp3518
bS'auckland london new york wellington'
p3519
tp3520
Rp3521
sS'XS1336080368'
p3522
g2
(g3
(S'S30'
p3523
I0
I1
tp3524
Rp3525
(I3
S'|'
p3526
NNNI30
I1
I0
tp3527
bS'istanbul london new york tokyo'
p3528
tp3529
Rp3530
sS'CH0281105210'
p3531
g2
(g3
(S'S8'
p3532
I0
I1
tp3533
Rp3534
(I3
S'|'
p3535
NNNI8
I1
I0
tp3536
bS'new york'
p3537
tp3538
Rp3539
sS'XS1400179906'
p3540
g2
(g3
(S'S35'
p3541
I0
I1
tp3542
Rp3543
(I3
S'|'
p3544
NNNI35
I1
I0
tp3545
bS'auckland london new york wellington'
p3546
tp3547
Rp3548
sS'XS1301717457'
p3549
g2
(g3
(S'S30'
p3550
I0
I1
tp3551
Rp3552
(I3
S'|'
p3553
NNNI30
I1
I0
tp3554
bS'brasilia london new york tokyo'
p3555
tp3556
Rp3557
sS'XS1315638764'
p3558
g2
(g3
(S'S8'
p3559
I0
I1
tp3560
Rp3561
(I3
S'|'
p3562
NNNI8
I1
I0
tp3563
bS'new york'
p3564
tp3565
Rp3566
sS'XS1014627498'
p3567
g2
(g3
(S'S30'
p3568
I0
I1
tp3569
Rp3570
(I3
S'|'
p3571
NNNI30
I1
I0
tp3572
bS'brasilia london new york tokyo'
p3573
tp3574
Rp3575
sS'XS1338541938'
p3576
g2
(g3
(S'S15'
p3577
I0
I1
tp3578
Rp3579
(I3
S'|'
p3580
NNNI15
I1
I0
tp3581
bS'target holidays'
p3582
tp3583
Rp3584
sS'XS1338515189'
p3585
g2
(g3
(S'S15'
p3586
I0
I1
tp3587
Rp3588
(I3
S'|'
p3589
NNNI15
I1
I0
tp3590
bS'target holidays'
p3591
tp3592
Rp3593
sS'FR0123709802'
p3594
g2
(g3
(S'S9'
p3595
I0
I1
tp3596
Rp3597
(I3
S'|'
p3598
NNNI9
I1
I0
tp3599
bS'hong kong'
p3600
tp3601
Rp3602
sS'XS1338509885'
p3603
g2
(g3
(S'S8'
p3604
I0
I1
tp3605
Rp3606
(I3
S'|'
p3607
NNNI8
I1
I0
tp3608
bS'new york'
p3609
tp3610
Rp3611
sS'XS1378488131'
p3612
g2
(g3
(S'S9'
p3613
I0
I1
tp3614
Rp3615
(I3
S'|'
p3616
NNNI9
I1
I0
tp3617
bS'hong kong'
p3618
tp3619
Rp3620
sS'XS1384274806'
p3621
g2
(g3
(S'S21'
p3622
I0
I1
tp3623
Rp3624
(I3
S'|'
p3625
NNNI21
I1
I0
tp3626
bS'london new york tokyo'
p3627
tp3628
Rp3629
sS'XS1292853899'
p3630
g2
(g3
(S'S8'
p3631
I0
I1
tp3632
Rp3633
(I3
S'|'
p3634
NNNI8
I1
I0
tp3635
bS'new york'
p3636
tp3637
Rp3638
sS'XS1314928802'
p3639
g2
(g3
(S'S37'
p3640
I0
I1
tp3641
Rp3642
(I3
S'|'
p3643
NNNI37
I1
I0
tp3644
bS'london new york target holidays tokyo'
p3645
tp3646
Rp3647
sS'XS1307725108'
p3648
g2
(g3
(S'S8'
p3649
I0
I1
tp3650
Rp3651
(I3
S'|'
p3652
NNNI8
I1
I0
tp3653
bS'new york'
p3654
tp3655
Rp3656
sS'XS1330373496'
p3657
g2
(g3
(S'S12'
p3658
I0
I1
tp3659
Rp3660
(I3
S'|'
p3661
NNNI12
I1
I0
tp3662
bS'london tokyo'
p3663
tp3664
Rp3665
sS'XS1317100466'
p3666
g2
(g3
(S'S21'
p3667
I0
I1
tp3668
Rp3669
(I3
S'|'
p3670
NNNI21
I1
I0
tp3671
bS'london new york tokyo'
p3672
tp3673
Rp3674
sS'XS1386328063'
p3675
g2
(g3
(S'S9'
p3676
I0
I1
tp3677
Rp3678
(I3
S'|'
p3679
NNNI9
I1
I0
tp3680
bS'singapore'
p3681
tp3682
Rp3683
sS'XS1391856330'
p3684
g2
(g3
(S'S6'
p3685
I0
I1
tp3686
Rp3687
(I3
S'|'
p3688
NNNI6
I1
I0
tp3689
bS'zurich'
p3690
tp3691
Rp3692
sS'XS1320649970'
p3693
g2
(g3
(S'S8'
p3694
I0
I1
tp3695
Rp3696
(I3
S'|'
p3697
NNNI8
I1
I0
tp3698
bS'new york'
p3699
tp3700
Rp3701
sS'XS1179858144'
p3702
g2
(g3
(S'S8'
p3703
I0
I1
tp3704
Rp3705
(I3
S'|'
p3706
NNNI8
I1
I0
tp3707
bS'new york'
p3708
tp3709
Rp3710
sS'XS1378389404'
p3711
g2
(g3
(S'S9'
p3712
I0
I1
tp3713
Rp3714
(I3
S'|'
p3715
NNNI9
I1
I0
tp3716
bS'hong kong'
p3717
tp3718
Rp3719
sS'XS1330957488'
p3720
g2
(g3
(S'S8'
p3721
I0
I1
tp3722
Rp3723
(I3
S'|'
p3724
NNNI8
I1
I0
tp3725
bS'new york'
p3726
tp3727
Rp3728
sS'XS1374859582'
p3729
g2
(g3
(S'S8'
p3730
I0
I1
tp3731
Rp3732
(I3
S'|'
p3733
NNNI8
I1
I0
tp3734
bS'new york'
p3735
tp3736
Rp3737
sS'XS1320649384'
p3738
g2
(g3
(S'S18'
p3739
I0
I1
tp3740
Rp3741
(I3
S'|'
p3742
NNNI18
I1
I0
tp3743
bS'hong kong new york'
p3744
tp3745
Rp3746
sS'XS1255065937'
p3747
g2
(g3
(S'S15'
p3748
I0
I1
tp3749
Rp3750
(I3
S'|'
p3751
NNNI15
I1
I0
tp3752
bS'london new york'
p3753
tp3754
Rp3755
sS'XS1395264499'
p3756
g2
(g3
(S'S9'
p3757
I0
I1
tp3758
Rp3759
(I3
S'|'
p3760
NNNI9
I1
I0
tp3761
bS'hong kong'
p3762
tp3763
Rp3764
sS'XS1274896452'
p3765
g2
(g3
(S'S8'
p3766
I0
I1
tp3767
Rp3768
(I3
S'|'
p3769
NNNI8
I1
I0
tp3770
bS'new york'
p3771
tp3772
Rp3773
sS'US718286CA32'
p3774
g2
(g3
(S'S21'
p3775
I0
I1
tp3776
Rp3777
(I3
S'|'
p3778
NNNI21
I1
I0
tp3779
bS'london new york tokyo'
p3780
tp3781
Rp3782
sS'CH0295931403'
p3783
g2
(g3
(S'S8'
p3784
I0
I1
tp3785
Rp3786
(I3
S'|'
p3787
NNNI8
I1
I0
tp3788
bS'new york'
p3789
tp3790
Rp3791
sS'XS1293103674'
p3792
g2
(g3
(S'S18'
p3793
I0
I1
tp3794
Rp3795
(I3
S'|'
p3796
NNNI18
I1
I0
tp3797
bS'new york sao-paulo'
p3798
tp3799
Rp3800
sS'XS1317268990'
p3801
g2
(g3
(S'S8'
p3802
I0
I1
tp3803
Rp3804
(I3
S'|'
p3805
NNNI8
I1
I0
tp3806
bS'new york'
p3807
tp3808
Rp3809
sS'XS0988480025'
p3810
g2
(g3
(S'S15'
p3811
I0
I1
tp3812
Rp3813
(I3
S'|'
p3814
NNNI15
I1
I0
tp3815
bS'london new york'
p3816
tp3817
Rp3818
sS'XS1306639664'
p3819
g2
(g3
(S'S30'
p3820
I0
I1
tp3821
Rp3822
(I3
S'|'
p3823
NNNI30
I1
I0
tp3824
bS'brasilia london new york tokyo'
p3825
tp3826
Rp3827
sS'XS1314797942'
p3828
g2
(g3
(S'S8'
p3829
I0
I1
tp3830
Rp3831
(I3
S'|'
p3832
NNNI8
I1
I0
tp3833
bS'new york'
p3834
tp3835
Rp3836
s.